Certificate:
    Data:
        Version: 3 (0x2)
        Serial Number: 2 (0x2)
        Signature Algorithm: sha256WithRSAEncryption
        Issuer: C=CN, ST=GD, L=GZ, O=SST, OU=hpsocket, CN=hpsocket.org/emailAddress=ldcsaa@gmail.com
        Validity
            Not Before: Jun 26 05:26:12 2024 GMT
            Not After : Jul  9 05:26:12 2243 GMT
        Subject: C=CN, ST=GD, O=SST, OU=hpsocket, CN=hpsocket.org/emailAddress=ldcsaa@gmail.com
        Subject Public Key Info:
            Public Key Algorithm: rsaEncryption
                Public-Key: (2048 bit)
                Modulus:
                    00:bf:56:fc:81:89:64:a4:6b:52:46:e5:9a:82:fd:
                    aa:dd:4f:09:43:ed:bc:f6:84:5f:b5:b1:4f:39:4a:
                    32:37:d0:fd:36:c0:d6:8b:d9:1e:48:1c:cc:4c:16:
                    8d:a2:f9:c6:56:12:1c:a1:69:76:a9:69:49:70:38:
                    54:cd:38:93:d7:50:d4:d1:8d:38:9f:ac:34:fe:27:
                    31:c0:68:05:44:8b:ae:c7:42:24:a5:f0:95:5b:0f:
                    de:99:95:6f:28:45:14:cf:85:62:ba:8c:f8:b4:b5:
                    44:69:be:91:ef:0f:ef:9a:df:da:0a:e4:de:fa:ab:
                    dd:f9:3a:3f:c6:5c:93:13:0d:ca:24:7b:b3:7c:77:
                    7d:e9:4e:f1:cf:9b:17:16:f3:15:26:93:82:d7:fb:
                    28:50:6e:3c:3a:ff:8d:b9:0d:a6:d3:d2:89:88:2d:
                    4a:c8:5e:7e:1e:d0:5c:6e:a0:25:5c:c1:1b:44:1f:
                    57:cf:c2:57:c7:14:1b:ca:3b:cf:08:1e:be:9a:b2:
                    04:46:b8:97:b1:03:cd:6f:ea:70:5b:26:c2:03:58:
                    91:6a:b9:fe:2b:22:53:e4:7e:89:2b:4c:00:e2:4a:
                    f8:e1:a7:61:0d:4c:7d:60:ec:ef:f5:10:b5:87:37:
                    9b:03:65:6f:f3:5c:83:53:aa:30:40:d8:34:85:fc:
                    91:15
                Exponent: 65537 (0x10001)
        X509v3 extensions:
            X509v3 Basic Constraints: 
                CA:FALSE
            X509v3 Subject Key Identifier: 
                96:D7:16:68:31:C8:04:71:88:F5:9D:6F:ED:1A:C9:15:89:3E:35:19
            X509v3 Authority Key Identifier: 
                5C:DF:36:6F:79:D8:4D:D1:30:D4:E2:F2:9F:9E:53:5B:B9:F9:FD:5B
    Signature Algorithm: sha256WithRSAEncryption
    Signature Value:
        a5:fe:c6:4f:31:a8:fc:f7:73:d8:d4:16:68:bb:5c:fd:50:1f:
        0f:47:09:b6:81:6f:9c:57:9c:c1:cc:64:23:64:f1:bd:22:c0:
        1f:f1:3d:f8:da:69:b2:2b:db:99:78:fd:3d:64:4f:3d:20:3f:
        f5:fc:fe:6c:96:95:df:96:c7:76:30:1f:ff:c1:65:bb:f4:db:
        81:b2:2d:a9:b6:62:ab:63:52:f2:38:3d:8e:36:4f:b8:b2:52:
        8d:cf:1c:c7:01:6d:42:66:d9:5b:36:dc:9c:e4:05:11:6e:82:
        61:73:d6:a8:4f:4d:74:bd:00:90:a6:c2:0a:a0:47:c5:ac:bf:
        40:5b:6c:50:eb:81:16:d6:45:6a:56:ee:ec:36:dc:87:13:43:
        72:6c:b9:87:cd:ed:bd:89:26:68:2d:fc:b6:54:ab:90:79:b2:
        00:bb:31:c5:72:71:69:63:73:9c:35:f2:d4:fb:6f:96:46:14:
        7e:0b:ca:6a:d4:a1:77:be:07:9f:a7:c9:09:14:31:46:eb:0a:
        32:ac:a2:b7:64:2d:df:8b:c0:04:55:6c:c4:9d:a6:8e:6c:e9:
        6f:d9:28:d3:64:21:fa:ac:e7:15:d7:19:fd:fe:ee:ae:e5:e0:
        2b:30:a1:42:23:ec:37:82:08:cb:d5:4e:19:6e:a5:a4:1d:9e:
        07:15:53:63
-----BEGIN CERTIFICATE-----
MIIDvjCCAqagAwIBAgIBAjANBgkqhkiG9w0BAQsFADCBgDELMAkGA1UEBhMCQ04x
CzAJBgNVBAgMAkdEMQswCQYDVQQHDAJHWjEMMAoGA1UECgwDU1NUMREwDwYDVQQL
DAhocHNvY2tldDEVMBMGA1UEAwwMaHBzb2NrZXQub3JnMR8wHQYJKoZIhvcNAQkB
FhBsZGNzYWFAZ21haWwuY29tMCAXDTI0MDYyNjA1MjYxMloYDzIyNDMwNzA5MDUy
NjEyWjBzMQswCQYDVQQGEwJDTjELMAkGA1UECAwCR0QxDDAKBgNVBAoMA1NTVDER
MA8GA1UECwwIaHBzb2NrZXQxFTATBgNVBAMMDGhwc29ja2V0Lm9yZzEfMB0GCSqG
SIb3DQEJARYQbGRjc2FhQGdtYWlsLmNvbTCCASIwDQYJKoZIhvcNAQEBBQADggEP
ADCCAQoCggEBAL9W/IGJZKRrUkblmoL9qt1PCUPtvPaEX7WxTzlKMjfQ/TbA1ovZ
HkgczEwWjaL5xlYSHKFpdqlpSXA4VM04k9dQ1NGNOJ+sNP4nMcBoBUSLrsdCJKXw
lVsP3pmVbyhFFM+FYrqM+LS1RGm+ke8P75rf2grk3vqr3fk6P8ZckxMNyiR7s3x3
felO8c+bFxbzFSaTgtf7KFBuPDr/jbkNptPSiYgtSshefh7QXG6gJVzBG0QfV8/C
V8cUG8o7zwgevpqyBEa4l7EDzW/qcFsmwgNYkWq5/isiU+R+iStMAOJK+OGnYQ1M
fWDs7/UQtYc3mwNlb/Ncg1OqMEDYNIX8kRUCAwEAAaNNMEswCQYDVR0TBAIwADAd
BgNVHQ4EFgQUltcWaDHIBHGI9Z1v7RrJFYk+NRkwHwYDVR0jBBgwFoAUXN82b3nY
TdEw1OLyn55TW7n5/VswDQYJKoZIhvcNAQELBQADggEBAKX+xk8xqPz3c9jUFmi7
XP1QHw9HCbaBb5xXnMHMZCNk8b0iwB/xPfjaabIr25l4/T1kTz0gP/X8/myWld+W
x3YwH//BZbv024GyLam2YqtjUvI4PY42T7iyUo3PHMcBbUJm2Vs23JzkBRFugmFz
1qhPTXS9AJCmwgqgR8Wsv0BbbFDrgRbWRWpW7uw23IcTQ3JsuYfN7b2JJmgt/LZU
q5B5sgC7McVycWljc5w18tT7b5ZGFH4LymrUoXe+B5+nyQkUMUbrCjKsordkLd+L
wARVbMSdpo5s6W/ZKNNkIfqs5xXXGf3+7q7l4CswoUIj7DeCCMvVThlupaQdngcV
U2M=
-----END CERTIFICATE-----
-----BEGIN ENCRYPTED PRIVATE KEY-----
MIIFLTBXBgkqhkiG9w0BBQ0wSjApBgkqhkiG9w0BBQwwHAQIvyZE5fYIj60CAggA
MAwGCCqGSIb3DQIJBQAwHQYJYIZIAWUDBAEqBBCBm4EXkk6qUGErj9fOfKt2BIIE
0FsgDso7tFSxsJm73mXrdZ3C15xGZw+/9/BLs1nAVYk4ppS1N6MPSApKwq01ynM/
dC9CHgAHYS6bcvaZLC8II0Gm0b0SuHtrSziE5dkoXxZIGYUlhzdiQisQDbmVKgcN
Kg60Xj+Sv+X0M2JZVeLzFs0AtXqt5kU0zRv1vmagU425z5lFRzhsyRlopBOb5N9Q
ZzI0oRHJuINm9i5xQXTni/tdcex8YfFfpJ2vxY9eXk2LFMVXghKYkB0JESQZnsHv
LX/Ld8uX2cjoakKRrHksnF4zXywsdPUO8Y4p/Vb0ByCDQFOEILIcio55zkcWErXF
5w8i0ZTPmKhuofdym290YBJgQEpkBnsEfxy0Ls114CrzVRv2ZKx+1dz9F+zj7xRk
4ZxMe8XtUJzVmHppXyAy1RLPYawgs4LnphifgcFe9UT811yD3ThwsHFcem50hF5J
Wt2rry7HFTdyQRcSAxa1VyNd+6iLrzHAHV/hyHVXbLu/OkwRMWS2jIx0YZEpQV9R
bJhuYYR/Nc1A6VhX+lAuMsK5hJ7EL04fypfM4jGtHM5sNK0myL/Cn1x6QlU9oquU
qh38PGs4zgrmVjhHO7p1IPyHyl9YkUDGA2mo0C/sHEAAkpNEq+bYnZdBDKp1gg5M
nz425wonKZ/odK34hM2e5xdVmSJ7u7lsfX5hoIgS5dzMc/CFkVhHG5BAXOS2cdMx
HLwOnm05TIUVTqUqpBwDacTCEaQS8CFCfw+CA3aSITXIx6f5luuh0g/FUdWepJnW
/ttOZEq0SYjkrf5Mr0T8+7RqqgJaGS3EdRAg7D84gMPxNCDBQN0CQqctQ9z+ECDO
ov71aaLzI961ZlZgy0DZbeWX8W5xy9NfNCVnMyXqnU044vOz7PIBGCyEDIJHcUJr
2Azo4ZVq90oTdwTdarXrA7PO7q6kbn8nLN7iZufUa8vPcUzTp5CRrH2HDs95IB7d
jgn1ER/OIz/F2yWMZjR91WONbT+eLZrwgS1moOZhYJ7tNjcHpmpyC+acKzshQfNI
v40IC018r3+oIL2U7iZvVwHL3nl2cQEXrJGdVuHgb3fU6PHvVegeMCd/cx/iaiuz
YdoG7sUWYizY2hvLiK+9VwzwwVxiRCf2O1PHmVkwnInev784llH4stJXGzfiuKHL
6cJa3TQKJodq1EAItYG4PC2JDJXl89+TZGCYCZGVNTWbKkjcLpROG5hvumpgUyqb
n0Vx53uNAyEVJbnwi8ynzaG6nRsu8oooMsutxZwGIFAyF8ZDiGtTvupDYXQ+iK+F
leFog/KebxcUrn7NKl/bODvUXLoD8g5X9IrqJSnLXkI0NegCXrvDA9BDxPucYK9Q
k7doNouGA4C6jdR49tjkw/6Q5uNdRQ8tZ9BEXkLlOen8k8QuWD2qLgvF1XoyrGMN
qwzJMiJeG8uX16e0jGedsYlv4QLmAhV6l2hWfakwYQdjrmh94a5NMFU/Kgvwk4dk
mDv9y0GSHwaw8ZELrO/MbdIjDvvfMu+1PS8OfS9xp61nsmrFFiuZ6kuc5SQiFWp5
AtCM9c2xexYpe/K2ACotf7veAVpmLuwc2AgAdTbqs9J8D+socRprpWQTrKhUp6W0
jFGPMMk3agwltx0Bex4Wuf6Ti4IsRXQ4XLyWBWe4Ufjl
-----END ENCRYPTED PRIVATE KEY-----
