-----BEGIN RSA PRIVATE KEY-----
Proc-Type: 4,ENCRYPTED
DEK-Info: AES-256-CBC,79978929CA370E17D6573D72FFFC1B52

IJMqXbxs/B+dsJlMvDuuyLTI7NnYcgTwuVIxZedIeiaCLoxBv0oty9Ln0n/fi1/W
wg/d9JqTcUhOcFYDBKXegwR8APyubLOHluFPVtJuG3YKvkNSOXeFQDulqcQ+8qOd
+BlEYweTtBqtxcD45fOT6pL8N2DUuET3syY9v4Ju2bVcZ9FM+j2qXOvIQGjkxci4
5C3anaMocgU6+1Bc/CNdYPrefYxTBpIiZCC5bML93W+9NoqmrjrCecDaVa7t7Vpl
Ppl2SFGDYkGeqVFcrs+FGeF+Og+sVrkLh9IQv87p/e3EFxu2bfzGsKgI6fPgRdwW
hcVIy3P2DAtZMQbOfchVTFUdv3zmvR5ks4eSFnuNy/WDTw8iPyuxMYf9fpY0mABS
t978Lkhe1BHAapTIY46gPiV70GzDt7RDT228vJ5KTeJvBYdpXu+6RgBB4gnNtAtR
WQzeABS1e8MDzmUL4WY0UtscC2xeTR455zX7DvrxKMRLf1v2r+EUYrNTG4Qw/EIz
Y3qVlNKVA/8gPQr6L9ozjTdz8uqC1/gpgDUsGyFha3Xy7D+SjzE1KrjiqNv4oSPw
tG4R1qx8fBuZYi7IyhsaJ+OCk1SP82FY+uyNsn3+Qpp6nAq1al6yw/j10hIqXjli
Vzn/omg3LCvnEPm1t7xmjpjvUqznkE+Tml3KExwE3eCyiDsZEBVcZN+67ni/iifM
QbcithXpkamYzoeNGZIlDIDZSLLB9mZyNL2Et0SLgZek0EJuJKmIiuup0756cvOE
aZsQPpZmoMbJd4xzoCY7EJgiKsLctFsXZxjWfQkgqxZmr8AYpG5QbwtycBjUFXu9
Q0N/I017XNT4jB3E1quA0bNLly0bcrngWY1Aui8vqvYzGYt2hKWa94KbK5GTgWNq
XhF5EslKEVIf1tXW/0BL/AVxAFzKPGBzHd90D9YmyCOV2EPOjrZLVvAWD9Rjk11a
H4AHlBCbY2Ja7XiyZVOXlbgOwL140+XD+WOb5UPTmTOpQqADfq89INvZc7dSuF7p
BFCCYaIFG7ZT0OxcPbqkvEOmKTSjRmlqR/oVM2q1AYXwJ9us+ujpeW6mlnK0Nx42
oF/HqcIAErkUI4Om69pYrS+znBv8+TQqfNFp5VNDAw25ZhPIJ8mezRkCRYohK8Lb
OExfpWIgxNJIJmjAeeMvkdn6fLKExNrJFSoNPD5XU1ELiiQb6AkD2lAzJ75hkW+C
/l982mO4j5nezMH0nwYJFoeKUmgZzkCIgD8yEGGEcezkDs2bMp7OTd0fAezluEpE
KLn95J0dVwijBAe+Ad+xuj2riv9UI4SGOQpsfbzOp9IQcBSwMo56ek3L6glVfYWr
3feIznTtCg+XTMu7aZgbAghutzG8VGLfnvbwfR5d0NZzzH01HXD3IMYt/BmGMcJd
OBUfM1x2EYYeitOQGvxNKtYCyn0pHPTR4/OHk3+Z/EiG77+3zeVfdMCzsgl90WBg
z7mdDmtbQVlClVUNJ0LlU4dwVGuHd5xHzYgfKFmx99kUmGgHqUeyY17h60KNV8lD
nhkPTP0rhSxkcZFkmxnJvwU3rlJnQQ5qmTMVZ6up3cime1IuVmVCUC+FkvYTagcu
-----END RSA PRIVATE KEY-----
Certificate:
    Data:
        Version: 3 (0x2)
        Serial Number: 4 (0x4)
    Signature Algorithm: sha256WithRSAEncryption
        Issuer: C=cn, ST=gd, L=gz, O=hpsocket, OU=sst, CN=www.hpsocket.org/emailAddress=ldcsaa@21cn.com
        Validity
            Not Before: Aug  8 00:00:00 2016 GMT
            Not After : Aug  8 00:00:00 2026 GMT
        Subject: C=cn, ST=gd, O=hpsocket, OU=sst, CN=www.hpsocket.org/emailAddress=ldcsaa@21cn.com
        Subject Public Key Info:
            Public Key Algorithm: rsaEncryption
                Public-Key: (2048 bit)
                Modulus:
                    00:b7:eb:33:21:8f:cf:8c:46:db:58:47:dd:5d:86:
                    28:72:bf:ce:81:27:d0:0f:c6:01:6f:38:40:a7:8f:
                    ec:60:1e:08:eb:f7:4a:96:8e:cd:26:84:0a:53:22:
                    16:95:43:78:2c:9a:fd:55:f0:83:0a:41:45:dd:80:
                    fe:a4:5c:e4:09:fc:9e:8a:b2:56:2f:82:59:df:36:
                    50:bf:37:58:3a:87:0b:82:51:0a:4e:17:b1:1a:09:
                    66:2f:04:63:99:8f:3f:bb:17:19:7c:35:9a:42:77:
                    a5:5e:67:34:84:0f:bc:70:52:78:3f:e2:cc:0d:27:
                    9e:21:fa:2b:d0:a1:68:ab:f2:bb:61:40:66:a8:a4:
                    95:69:8d:a4:bc:14:e2:66:4d:dc:85:e6:23:98:2e:
                    79:15:21:34:f0:8f:ff:fd:6f:c8:38:e1:03:21:93:
                    62:6d:07:84:9e:c8:a3:ca:22:cd:dc:05:0f:4d:a6:
                    f3:7b:af:c9:fd:38:5d:33:c0:87:e0:9a:a4:31:3f:
                    e5:c7:39:5c:c4:44:c9:c1:c5:e1:01:b1:46:eb:5a:
                    80:43:2a:32:41:39:4f:90:f2:de:6c:ca:bb:3c:27:
                    84:eb:5c:77:f1:f4:6c:84:3a:ad:97:a5:97:c5:5a:
                    30:87:cb:dd:4e:fa:1b:2f:12:f5:58:c0:e3:d4:0a:
                    2b:71
                Exponent: 65537 (0x10001)
        X509v3 extensions:
            X509v3 Basic Constraints: 
                CA:FALSE
            Netscape Comment: 
                OpenSSL Generated Certificate
            X509v3 Subject Key Identifier: 
                B2:2C:37:0F:EE:C0:69:AC:7D:A1:80:08:D5:6A:F5:0C:C3:75:85:CA
            X509v3 Authority Key Identifier: 
                keyid:73:3B:7E:C8:90:A0:20:A3:DC:FB:09:D1:20:F1:1D:B6:19:5A:E6:98

    Signature Algorithm: sha256WithRSAEncryption
         1a:ab:b4:e0:23:bd:79:09:05:7b:9c:16:0c:98:fa:af:6f:84:
         fb:a7:e3:73:47:fa:e7:b6:b7:60:e7:87:de:aa:55:c5:df:f8:
         8e:ad:22:e8:20:44:a4:f8:61:9f:4e:bd:52:5a:cf:e3:11:28:
         70:f8:ef:6b:88:32:6d:3f:b5:d9:c2:2e:eb:62:bb:02:86:1b:
         18:34:4e:f5:c2:6d:23:67:a9:c0:8e:4e:8b:1c:5e:93:65:61:
         55:9b:78:2b:08:56:fe:be:93:87:c8:74:42:c5:e5:3a:da:a0:
         d2:1b:a4:45:c7:f3:3a:0a:d1:83:e6:17:26:6b:23:7e:63:99:
         65:eb:67:fb:8e:1a:b4:2b:77:74:79:d1:d7:ab:d2:24:57:8b:
         04:33:dd:a7:66:ef:46:b3:b5:79:e8:41:26:d7:ea:cb:c3:86:
         69:c4:ae:95:32:9f:e9:63:63:0d:35:b7:db:8e:1d:cd:ef:be:
         88:4b:04:d4:18:74:c9:13:96:dd:59:33:81:10:04:9e:19:3f:
         04:61:14:c5:98:e0:aa:87:0b:35:bb:3a:7a:70:98:98:e9:70:
         f3:72:b5:39:97:81:84:95:be:38:09:05:42:47:8e:54:e7:e1:
         00:57:fb:4f:d9:4e:a0:95:a9:82:a1:15:bc:aa:23:5b:47:d9:
         8b:5f:d3:29
-----BEGIN CERTIFICATE-----
MIID8DCCAtigAwIBAgIBBDANBgkqhkiG9w0BAQsFADCBgzELMAkGA1UEBhMCY24x
CzAJBgNVBAgMAmdkMQswCQYDVQQHDAJnejERMA8GA1UECgwIaHBzb2NrZXQxDDAK
BgNVBAsMA3NzdDEZMBcGA1UEAwwQd3d3Lmhwc29ja2V0Lm9yZzEeMBwGCSqGSIb3
DQEJARYPbGRjc2FhQDIxY24uY29tMB4XDTE2MDgwODAwMDAwMFoXDTI2MDgwODAw
MDAwMFowdjELMAkGA1UEBhMCY24xCzAJBgNVBAgMAmdkMREwDwYDVQQKDAhocHNv
Y2tldDEMMAoGA1UECwwDc3N0MRkwFwYDVQQDDBB3d3cuaHBzb2NrZXQub3JnMR4w
HAYJKoZIhvcNAQkBFg9sZGNzYWFAMjFjbi5jb20wggEiMA0GCSqGSIb3DQEBAQUA
A4IBDwAwggEKAoIBAQC36zMhj8+MRttYR91dhihyv86BJ9APxgFvOECnj+xgHgjr
90qWjs0mhApTIhaVQ3gsmv1V8IMKQUXdgP6kXOQJ/J6KslYvglnfNlC/N1g6hwuC
UQpOF7EaCWYvBGOZjz+7Fxl8NZpCd6VeZzSED7xwUng/4swNJ54h+ivQoWir8rth
QGaopJVpjaS8FOJmTdyF5iOYLnkVITTwj//9b8g44QMhk2JtB4SeyKPKIs3cBQ9N
pvN7r8n9OF0zwIfgmqQxP+XHOVzERMnBxeEBsUbrWoBDKjJBOU+Q8t5syrs8J4Tr
XHfx9GyEOq2XpZfFWjCHy91O+hsvEvVYwOPUCitxAgMBAAGjezB5MAkGA1UdEwQC
MAAwLAYJYIZIAYb4QgENBB8WHU9wZW5TU0wgR2VuZXJhdGVkIENlcnRpZmljYXRl
MB0GA1UdDgQWBBSyLDcP7sBprH2hgAjVavUMw3WFyjAfBgNVHSMEGDAWgBRzO37I
kKAgo9z7CdEg8R22GVrmmDANBgkqhkiG9w0BAQsFAAOCAQEAGqu04CO9eQkFe5wW
DJj6r2+E+6fjc0f657a3YOeH3qpVxd/4jq0i6CBEpPhhn069UlrP4xEocPjva4gy
bT+12cIu62K7AoYbGDRO9cJtI2epwI5Oixxek2VhVZt4KwhW/r6Th8h0QsXlOtqg
0hukRcfzOgrRg+YXJmsjfmOZZetn+44atCt3dHnR16vSJFeLBDPdp2bvRrO1eehB
Jtfqy8OGacSulTKf6WNjDTW3244dze++iEsE1Bh0yROW3VkzgRAEnhk/BGEUxZjg
qocLNbs6enCYmOlw83K1OZeBhJW+OAkFQkeOVOfhAFf7T9lOoJWpgqEVvKojW0fZ
i1/TKQ==
-----END CERTIFICATE-----
