Certificate:
    Data:
        Version: 3 (0x2)
        Serial Number: 1 (0x1)
        Signature Algorithm: sha256WithRSAEncryption
        Issuer: C=CN, ST=GD, L=GZ, O=SST, OU=Jessma, CN=jessma.org/emailAddress=ldcsaa@21cn.com
        Validity
            Not Before: Jun 26 05:25:08 2024 GMT
            Not After : Jul  9 05:25:08 2243 GMT
        Subject: C=CN, ST=GD, O=SST, OU=Jessma, CN=jessma.org/emailAddress=ldcsaa@21cn.com
        Subject Public Key Info:
            Public Key Algorithm: rsaEncryption
                Public-Key: (2048 bit)
                Modulus:
                    00:83:f8:cc:ab:24:42:82:85:e4:68:3a:93:11:8d:
                    1e:fc:4b:c8:6b:f5:6e:d7:37:4f:c4:65:6c:95:2b:
                    05:d1:4f:b1:04:d1:a1:a2:41:d1:ff:5b:66:be:aa:
                    95:91:31:ae:84:42:2e:3b:cd:d0:67:b7:43:fc:66:
                    81:62:22:d4:21:ba:1c:14:27:4e:b8:69:fa:55:a1:
                    a1:c7:5f:6e:54:75:b1:7c:af:eb:11:4e:87:da:76:
                    e8:21:11:30:41:8f:60:9f:aa:1d:22:6b:a1:0e:07:
                    44:2f:a4:9a:72:c1:69:86:64:fa:0c:b7:2a:63:6d:
                    48:93:6f:f6:06:38:98:76:aa:c5:6b:eb:b3:0d:fc:
                    4e:3c:be:de:ea:b7:45:71:17:d4:84:a6:e7:2f:aa:
                    1a:da:4c:19:63:58:27:91:54:26:9e:d9:cd:32:05:
                    2a:6a:fe:7f:bb:36:16:a6:2b:bf:a0:df:1c:42:29:
                    64:73:e2:93:77:c2:b2:28:12:c5:d3:6e:84:e1:cf:
                    de:34:71:a0:e0:b6:10:9c:db:75:49:d3:cd:03:37:
                    8e:23:66:0e:9c:f3:b8:6e:28:8b:b1:6d:e6:c9:ab:
                    0d:87:08:ce:03:c2:b5:be:39:2c:d3:2e:cc:e9:14:
                    05:d9:c9:aa:e5:94:ec:d6:9c:1b:ad:db:4c:e6:62:
                    79:75
                Exponent: 65537 (0x10001)
        X509v3 extensions:
            X509v3 Basic Constraints: 
                CA:FALSE
            X509v3 Subject Key Identifier: 
                9E:44:44:99:89:E2:95:33:11:B7:14:F5:88:1E:EA:7A:F4:A2:2E:75
            X509v3 Authority Key Identifier: 
                DE:3D:CF:8F:03:CB:09:A8:0F:87:0D:4D:08:02:EA:79:F6:40:9A:14
    Signature Algorithm: sha256WithRSAEncryption
    Signature Value:
        69:a1:21:5f:0c:30:ca:30:0c:bd:e6:d4:91:3a:96:2e:e5:64:
        96:41:77:ba:07:b9:25:3c:62:40:17:a9:96:7b:fe:1b:ee:31:
        d0:a8:35:15:90:49:85:99:b3:16:50:0b:69:4c:2d:cf:d3:54:
        eb:57:be:dd:84:8a:2c:02:70:bf:07:be:9f:6f:b3:ed:a3:c5:
        b8:72:31:a9:58:04:f4:b1:27:a0:66:e8:67:2e:d8:2e:4c:69:
        67:47:4b:d5:4a:1f:f2:45:10:c4:b6:33:7c:96:85:a9:bb:70:
        4b:59:51:d8:38:a9:e7:eb:64:06:7d:8d:01:b1:11:ab:7d:9b:
        0a:bf:00:7e:d7:0f:87:3a:f1:a8:a6:75:af:e9:46:30:af:31:
        0a:b6:18:cf:31:1e:b9:ac:eb:28:31:a9:ce:bf:6e:2e:6b:c6:
        da:26:6a:b4:82:a1:7d:ef:9d:a4:0f:c9:fb:d3:7b:96:50:1c:
        7b:f7:f4:25:34:83:cc:64:2d:62:50:88:b5:98:48:f2:ad:38:
        12:6a:0e:be:de:c5:80:20:a8:a1:6a:81:7f:35:ff:5d:d3:59:
        f0:88:bd:7a:10:84:f9:74:9d:10:25:60:c2:78:8c:61:b9:36:
        5c:93:0f:a0:2f:5a:41:79:05:3b:a6:ac:ca:1c:f9:ef:a3:ef:
        06:06:74:c6
-----BEGIN CERTIFICATE-----
MIIDszCCApugAwIBAgIBATANBgkqhkiG9w0BAQsFADB7MQswCQYDVQQGEwJDTjEL
MAkGA1UECAwCR0QxCzAJBgNVBAcMAkdaMQwwCgYDVQQKDANTU1QxDzANBgNVBAsM
Bkplc3NtYTETMBEGA1UEAwwKamVzc21hLm9yZzEeMBwGCSqGSIb3DQEJARYPbGRj
c2FhQDIxY24uY29tMCAXDTI0MDYyNjA1MjUwOFoYDzIyNDMwNzA5MDUyNTA4WjBu
MQswCQYDVQQGEwJDTjELMAkGA1UECAwCR0QxDDAKBgNVBAoMA1NTVDEPMA0GA1UE
CwwGSmVzc21hMRMwEQYDVQQDDApqZXNzbWEub3JnMR4wHAYJKoZIhvcNAQkBFg9s
ZGNzYWFAMjFjbi5jb20wggEiMA0GCSqGSIb3DQEBAQUAA4IBDwAwggEKAoIBAQCD
+MyrJEKCheRoOpMRjR78S8hr9W7XN0/EZWyVKwXRT7EE0aGiQdH/W2a+qpWRMa6E
Qi47zdBnt0P8ZoFiItQhuhwUJ064afpVoaHHX25UdbF8r+sRTofadughETBBj2Cf
qh0ia6EOB0QvpJpywWmGZPoMtypjbUiTb/YGOJh2qsVr67MN/E48vt7qt0VxF9SE
pucvqhraTBljWCeRVCae2c0yBSpq/n+7NhamK7+g3xxCKWRz4pN3wrIoEsXTboTh
z940caDgthCc23VJ080DN44jZg6c87huKIuxbebJqw2HCM4DwrW+OSzTLszpFAXZ
yarllOzWnBut20zmYnl1AgMBAAGjTTBLMAkGA1UdEwQCMAAwHQYDVR0OBBYEFJ5E
RJmJ4pUzEbcU9Yge6nr0oi51MB8GA1UdIwQYMBaAFN49z48DywmoD4cNTQgC6nn2
QJoUMA0GCSqGSIb3DQEBCwUAA4IBAQBpoSFfDDDKMAy95tSROpYu5WSWQXe6B7kl
PGJAF6mWe/4b7jHQqDUVkEmFmbMWUAtpTC3P01TrV77dhIosAnC/B76fb7Pto8W4
cjGpWAT0sSegZuhnLtguTGlnR0vVSh/yRRDEtjN8loWpu3BLWVHYOKnn62QGfY0B
sRGrfZsKvwB+1w+HOvGopnWv6UYwrzEKthjPMR65rOsoManOv24ua8baJmq0gqF9
752kD8n703uWUBx79/QlNIPMZC1iUIi1mEjyrTgSag6+3sWAIKihaoF/Nf9d01nw
iL16EIT5dJ0QJWDCeIxhuTZckw+gL1pBeQU7pqzKHPnvo+8GBnTG
-----END CERTIFICATE-----
