Certificate:
    Data:
        Version: 3 (0x2)
        Serial Number: 1 (0x1)
        Signature Algorithm: sha256WithRSAEncryption
        Issuer: C=cn, ST=gd, L=gz, O=SST, OU=Jessma, CN=ldcsaa/emailAddress=ldcsaa@gmail.com
        Validity
            Not Before: Jun 19 12:37:51 2024 GMT
            Not After : Jul  2 12:37:51 2243 GMT
        Subject: C=cn, ST=gd, O=SST, OU=Jessma, CN=ldcsaa/emailAddress=ldcsaa@gmail.com
        Subject Public Key Info:
            Public Key Algorithm: rsaEncryption
                Public-Key: (2048 bit)
                Modulus:
                    00:d9:f8:c7:bf:07:97:0b:55:e9:cd:d4:01:c8:ef:
                    68:db:9c:dd:d2:04:d9:89:a4:b6:32:19:d5:ad:fa:
                    bc:35:ea:0c:9b:1a:14:80:b2:c4:19:69:01:fd:60:
                    8b:0b:d4:a9:f1:1e:7a:f4:4c:81:b1:5a:7d:3b:2b:
                    85:1a:dd:11:3d:95:7c:e4:25:b6:1a:3b:2c:7b:a6:
                    fb:28:cd:19:35:f7:d0:8c:f5:57:a1:43:e0:ec:a9:
                    4d:a6:4a:13:e2:f4:5a:5d:93:29:22:45:33:f8:bd:
                    9d:61:58:df:67:1d:f0:83:ba:68:9d:20:78:4f:d4:
                    bb:e6:a4:60:07:5b:3f:e5:50:d5:38:0c:31:61:cd:
                    5c:86:d5:7a:dd:45:1b:5c:d6:ab:87:f7:f6:8a:7b:
                    a1:b1:71:06:05:20:80:37:bb:de:fb:5e:64:1b:a7:
                    1f:55:0d:44:53:dc:c4:e7:b5:ee:f9:7b:7d:ee:b3:
                    c7:f0:af:87:3e:d8:19:6c:44:d6:54:dd:d1:b3:72:
                    c5:0c:49:84:2c:fa:ec:d0:aa:7c:67:f4:b8:0a:0c:
                    2a:04:18:da:84:45:09:f9:96:b8:16:9c:04:4e:00:
                    64:c6:70:d6:b4:be:09:f0:0e:2b:28:81:e5:54:25:
                    21:eb:8b:f7:54:f7:c2:36:95:ce:bc:a0:47:61:b0:
                    55:9d
                Exponent: 65537 (0x10001)
        X509v3 extensions:
            X509v3 Basic Constraints: 
                CA:FALSE
            X509v3 Subject Key Identifier: 
                BF:41:F7:7A:88:60:0C:C4:60:29:3A:17:86:71:04:59:ED:8C:6C:7B
            X509v3 Authority Key Identifier: 
                BB:FE:33:BD:FD:D7:79:CA:41:89:15:EF:7F:2E:AD:4C:0B:06:8D:DF
    Signature Algorithm: sha256WithRSAEncryption
    Signature Value:
        dd:4d:16:f8:58:aa:a4:f0:49:96:b5:37:6a:b0:29:7f:a8:c9:
        a0:9d:1c:a2:90:98:1c:39:15:ab:64:60:ad:46:06:0b:15:21:
        fa:c5:0e:88:cf:d1:1a:15:8f:10:df:c2:f5:b5:92:f3:ba:30:
        28:37:a8:42:39:67:46:ee:4a:c4:b9:40:df:94:11:ca:a7:f0:
        ff:8d:61:56:16:22:8a:44:de:bc:4d:fd:e1:c9:00:2c:46:40:
        e9:c3:34:89:0e:34:fa:ed:34:34:33:3f:46:36:46:d2:db:c4:
        f6:8d:75:2f:f1:bf:64:3f:1b:e5:82:dd:4f:4d:b1:49:3a:5e:
        f3:34:01:87:40:e7:72:5d:ae:6a:80:46:20:0e:95:52:ce:10:
        ba:2d:0c:5f:ee:54:41:b2:f2:4f:38:42:ca:e0:be:2a:5c:12:
        ea:82:29:93:bb:a9:03:9b:10:62:05:53:04:ed:eb:9f:f2:c4:
        97:5f:f2:2d:ed:fc:88:55:5a:6c:fe:c1:20:5d:65:88:cc:d3:
        39:da:3b:41:bc:c5:03:fb:3c:a9:03:50:11:a3:10:f9:98:2f:
        ad:7a:36:91:01:29:88:3c:b8:93:10:7f:c2:8f:5f:41:a5:12:
        1e:fa:0f:e4:93:d4:94:f9:3d:62:32:02:a0:7f:c1:c4:fe:9a:
        f5:78:a6:55
-----BEGIN CERTIFICATE-----
MIIDrTCCApWgAwIBAgIBATANBgkqhkiG9w0BAQsFADB4MQswCQYDVQQGEwJjbjEL
MAkGA1UECAwCZ2QxCzAJBgNVBAcMAmd6MQwwCgYDVQQKDANTU1QxDzANBgNVBAsM
Bkplc3NtYTEPMA0GA1UEAwwGbGRjc2FhMR8wHQYJKoZIhvcNAQkBFhBsZGNzYWFA
Z21haWwuY29tMCAXDTI0MDYxOTEyMzc1MVoYDzIyNDMwNzAyMTIzNzUxWjBrMQsw
CQYDVQQGEwJjbjELMAkGA1UECAwCZ2QxDDAKBgNVBAoMA1NTVDEPMA0GA1UECwwG
SmVzc21hMQ8wDQYDVQQDDAZsZGNzYWExHzAdBgkqhkiG9w0BCQEWEGxkY3NhYUBn
bWFpbC5jb20wggEiMA0GCSqGSIb3DQEBAQUAA4IBDwAwggEKAoIBAQDZ+Me/B5cL
VenN1AHI72jbnN3SBNmJpLYyGdWt+rw16gybGhSAssQZaQH9YIsL1KnxHnr0TIGx
Wn07K4Ua3RE9lXzkJbYaOyx7pvsozRk199CM9VehQ+DsqU2mShPi9FpdkykiRTP4
vZ1hWN9nHfCDumidIHhP1LvmpGAHWz/lUNU4DDFhzVyG1XrdRRtc1quH9/aKe6Gx
cQYFIIA3u977XmQbpx9VDURT3MTnte75e33us8fwr4c+2BlsRNZU3dGzcsUMSYQs
+uzQqnxn9LgKDCoEGNqERQn5lrgWnAROAGTGcNa0vgnwDisogeVUJSHri/dU98I2
lc68oEdhsFWdAgMBAAGjTTBLMAkGA1UdEwQCMAAwHQYDVR0OBBYEFL9B93qIYAzE
YCk6F4ZxBFntjGx7MB8GA1UdIwQYMBaAFLv+M73913nKQYkV738urUwLBo3fMA0G
CSqGSIb3DQEBCwUAA4IBAQDdTRb4WKqk8EmWtTdqsCl/qMmgnRyikJgcORWrZGCt
RgYLFSH6xQ6Iz9EaFY8Q38L1tZLzujAoN6hCOWdG7krEuUDflBHKp/D/jWFWFiKK
RN68Tf3hyQAsRkDpwzSJDjT67TQ0Mz9GNkbS28T2jXUv8b9kPxvlgt1PTbFJOl7z
NAGHQOdyXa5qgEYgDpVSzhC6LQxf7lRBsvJPOELK4L4qXBLqgimTu6kDmxBiBVME
7euf8sSXX/It7fyIVVps/sEgXWWIzNM52jtBvMUD+zypA1ARoxD5mC+tejaRASmI
PLiTEH/Cj19BpRIe+g/kk9SU+T1iMgKgf8HE/pr1eKZV
-----END CERTIFICATE-----
-----BEGIN ENCRYPTED PRIVATE KEY-----
MIIFLTBXBgkqhkiG9w0BBQ0wSjApBgkqhkiG9w0BBQwwHAQIHDyQpc1lAccCAggA
MAwGCCqGSIb3DQIJBQAwHQYJYIZIAWUDBAEqBBCaKKfc8sRMdHRgggdb3nV8BIIE
0IBIaBi7kcV1iWIacPFnqHwQlUsv4OaMU0mLA0u+71hhWCZJqx33lYjo/wdRtROL
sOuIiRVuQMxZcr15uFV0ZYBwPV880JrN+Nj9jb8b0WF0iPGcKsCnlXkaMpfW901z
sAg462TTMGKyD7vRNX1BAi3fuUWB1l0xzPHQA4cTqXZEZJBGlh00mpOF8qRt6d8N
rD3Qf5VK7s7ZF289hdDHN8XuBC0qmtAhZJQ8bpQjz3u1c8AwDFYFXN3jd/qNXa47
tr35SRIorbVgJSp4ifzQ/ZS4yqPWXxJPF+UAZbI6ueRLcDTafBoGwBWzsn+LQ7pN
lywnOSTfL7anO02jiPtBxSf+Biy2kdtpqehuSLr6trxVMJVkRaOTeBW+bUYkTPMz
iCxDmO4uKDUWK6Bjxvr3d0cip6cjyKxYtSFtFFbqTw03alGODtYa4r4tKe77EFEU
zGxJoRtGmt9GZpraMlMLi8Sriyl4I/S2TwHZlyOpIjRw/fztzeS/ECOINGi2xGbM
4K9zrAue+7S4+ukl5yPi+MNefotYOxISuo3dBhdI1K/VQMxSrlNO/RanP7NzNxBl
YO5LTvSCDuJiieaTFF3AoGrO90i7+Qn0OHQvTdLFEAXfn2aqA5nxoQxu3R9PoVZ1
4FSXv3mvm4WNYrizIGKjEuH/h4sxdajoo35VHVYU/x0xpSBiWIfyS5Z7Z0nGzuNV
UKXNycQtxULuzdheoceMsRYzpro0LdbgI7QSlaOKT4iujVmdXZOfc55cIsKi7E9+
YZQHkwjwvTeEgloNOCQ1jMHHUj/Qwv/OBNRVkfbkIjIqUKhY8MJABbZcmwRWEC3s
JZrcAFshBxoa8PNke43ePkCmC7mJzAphdgCBcvcEgBW4p91BvBRZvXJ4ip6bswL/
GD9gOS4E/K2umo31yaSmeG6QbDakpl2sUBAdhM1xsk7DAiy5vfycSZeuu3KoPeZu
mdEq1eZkYjN8S9MH2QOxNFanZqtGWv7UnvrZ6rucpglngWFAW/nkpA9D4RrFU/Wc
jdkCMMjMMKNEVt63JihxeheTHrH6dF1wt4D52+GkzXLbGc//p8Bqp0fPzcBy8vZv
H7IMUxihaK8d0OsnCPj0WqQqT+DY2AO/PYBOWpF3YflQCeGQIw84VGVTAgRx4cpW
BZJ1L5N4Sz6rl3cr4JTTw8YMdDQ5iRJnNkA6TZC9oPNI+FyST24v065j+lgUxzde
fILSKco9/x88XxqH9wHJEV+1hFU+L7IDXK6zQYuvwCo+69idv/eiqRyem48ZpeH3
Hy8heG2fkTfPJAy7Itmh9hxsc1qVuAS/Fg+0khrLBSwOT9dw2dkoOSTY2AVtbiRV
IrUF0JESF5K6erZr/bmqujS2JCU67fQmkZv5H22cC4MAIN+HupY/PJo6VpGWZ4ps
6+GxFN/GKXxq7LAUeo0oAfek/OXWisAjE5dGJ8+44KJvll4yHeKzgx7id4xKCtLW
nphaJMjpc02VmwIYaLXbSWo2b5SkTsHtZgt7Q7EsTVwWsa7KXuykdE0tzGUerBWk
5jcvV2nCK8slazpygtyqZmJx9vfjdIguPtox/ID5We6lASQr7wiNysi+l3ki7Bdk
FJZM07xq2fvh3MTrlMX3tv/JzrCZW160sZnVWDxxy6Q0
-----END ENCRYPTED PRIVATE KEY-----
