Certificate:
    Data:
        Version: 3 (0x2)
        Serial Number: 2 (0x2)
        Signature Algorithm: sha256WithRSAEncryption
        Issuer: C=cn, ST=gd, L=gz, O=SST, OU=Jessma, CN=ldcsaa/emailAddress=ldcsaa@gmail.com
        Validity
            Not Before: Jun 19 12:39:47 2024 GMT
            Not After : Jul  2 12:39:47 2243 GMT
        Subject: C=cn, ST=gd, O=SST, OU=Jessma, CN=ldcsaa/emailAddress=ldcsaa@gmail.com
        Subject Public Key Info:
            Public Key Algorithm: rsaEncryption
                Public-Key: (2048 bit)
                Modulus:
                    00:c7:38:57:16:61:c3:25:bc:b9:84:62:5d:52:08:
                    3a:75:ae:96:f9:ea:32:ce:d8:22:ab:c8:e2:25:70:
                    ec:cb:fa:37:34:56:43:e9:32:92:d6:eb:26:d4:46:
                    a2:9a:db:b8:4c:0c:23:6f:42:17:b0:a3:0a:c4:c5:
                    28:db:58:78:36:4d:c1:79:aa:cb:95:ee:a7:c5:50:
                    73:83:f4:25:46:e4:33:c8:ee:f6:96:9f:2e:88:8c:
                    c7:52:53:00:e3:73:53:b0:26:d3:a6:5d:89:53:f0:
                    88:5e:ec:31:4f:1e:0f:29:ff:2b:10:4c:d0:68:39:
                    a7:49:11:d8:c0:99:0d:f8:cf:47:80:49:cb:43:c5:
                    7d:49:d8:f8:a5:24:16:6b:33:e0:36:06:96:ac:44:
                    66:64:2c:75:7c:a0:5b:72:67:85:db:4a:58:b6:1e:
                    9d:d1:f2:30:9e:24:b2:a9:65:d6:05:13:53:6f:01:
                    c8:05:cc:b1:60:a7:a0:99:7f:eb:36:e9:9d:b3:e5:
                    55:aa:33:b3:38:e8:79:a2:67:e8:e6:5e:37:7f:c9:
                    9d:bf:bd:0c:22:f3:61:36:8b:e9:e5:d0:c1:2d:03:
                    2d:48:72:a0:81:74:05:21:4a:a8:35:c7:fe:29:d5:
                    89:79:7f:aa:0a:02:77:f1:a0:ef:16:76:fd:3c:1a:
                    c5:91
                Exponent: 65537 (0x10001)
        X509v3 extensions:
            X509v3 Basic Constraints: 
                CA:FALSE
            X509v3 Subject Key Identifier: 
                46:CF:67:A7:CF:36:CA:E6:9F:04:A0:D7:9B:FE:A8:6F:A8:3D:0F:6A
            X509v3 Authority Key Identifier: 
                5C:DF:36:6F:79:D8:4D:D1:30:D4:E2:F2:9F:9E:53:5B:B9:F9:FD:5B
    Signature Algorithm: sha256WithRSAEncryption
    Signature Value:
        61:22:fd:10:d9:ad:e3:d6:bf:23:c4:2f:2b:af:75:53:fe:43:
        57:8b:8f:2e:58:46:01:67:52:08:ef:86:1e:3b:e3:72:18:36:
        07:fa:74:d0:f2:5f:80:96:ec:35:ec:d2:f1:68:91:5e:38:d1:
        5d:c7:41:e4:d7:4f:37:2b:fe:ac:b1:e0:17:cd:42:77:23:0f:
        05:45:ae:c0:e7:98:9a:6f:6f:37:b1:c6:f2:87:9d:a4:b8:8d:
        dc:10:4a:f7:bc:d6:bf:fa:15:3a:57:05:72:45:38:79:ff:b9:
        57:c6:55:2c:e6:13:f2:99:e8:2a:3c:93:b2:ee:c1:5c:91:21:
        aa:a4:50:b4:c4:41:12:58:cb:e6:c3:1d:4a:f8:36:95:fb:fe:
        e4:03:08:6d:5b:92:a0:f9:e1:eb:c0:ff:8d:fe:e0:bf:7e:3e:
        cc:1a:ab:96:f7:b0:4a:1e:bd:11:cf:cb:4c:d8:0c:b5:00:91:
        f8:bc:19:f9:3a:54:9c:7c:b7:2e:7a:e7:5b:00:6f:57:0e:8f:
        75:5b:a4:5b:16:2e:8f:e8:82:a9:f8:c1:6c:19:51:e7:7b:2c:
        61:5d:0d:96:23:07:88:55:f3:8d:27:9d:9c:67:f0:e6:4b:2a:
        fa:13:bb:2d:8e:b0:da:bf:49:52:c4:31:fb:b8:c2:75:d4:af:
        aa:0c:9a:20
-----BEGIN CERTIFICATE-----
MIIDrTCCApWgAwIBAgIBAjANBgkqhkiG9w0BAQsFADB4MQswCQYDVQQGEwJjbjEL
MAkGA1UECAwCZ2QxCzAJBgNVBAcMAmd6MQwwCgYDVQQKDANTU1QxDzANBgNVBAsM
Bkplc3NtYTEPMA0GA1UEAwwGbGRjc2FhMR8wHQYJKoZIhvcNAQkBFhBsZGNzYWFA
Z21haWwuY29tMCAXDTI0MDYxOTEyMzk0N1oYDzIyNDMwNzAyMTIzOTQ3WjBrMQsw
CQYDVQQGEwJjbjELMAkGA1UECAwCZ2QxDDAKBgNVBAoMA1NTVDEPMA0GA1UECwwG
SmVzc21hMQ8wDQYDVQQDDAZsZGNzYWExHzAdBgkqhkiG9w0BCQEWEGxkY3NhYUBn
bWFpbC5jb20wggEiMA0GCSqGSIb3DQEBAQUAA4IBDwAwggEKAoIBAQDHOFcWYcMl
vLmEYl1SCDp1rpb56jLO2CKryOIlcOzL+jc0VkPpMpLW6ybURqKa27hMDCNvQhew
owrExSjbWHg2TcF5qsuV7qfFUHOD9CVG5DPI7vaWny6IjMdSUwDjc1OwJtOmXYlT
8Ihe7DFPHg8p/ysQTNBoOadJEdjAmQ34z0eASctDxX1J2PilJBZrM+A2BpasRGZk
LHV8oFtyZ4XbSli2Hp3R8jCeJLKpZdYFE1NvAcgFzLFgp6CZf+s26Z2z5VWqM7M4
6HmiZ+jmXjd/yZ2/vQwi82E2i+nl0MEtAy1IcqCBdAUhSqg1x/4p1Yl5f6oKAnfx
oO8Wdv08GsWRAgMBAAGjTTBLMAkGA1UdEwQCMAAwHQYDVR0OBBYEFEbPZ6fPNsrm
nwSg15v+qG+oPQ9qMB8GA1UdIwQYMBaAFFzfNm952E3RMNTi8p+eU1u5+f1bMA0G
CSqGSIb3DQEBCwUAA4IBAQBhIv0Q2a3j1r8jxC8rr3VT/kNXi48uWEYBZ1II74Ye
O+NyGDYH+nTQ8l+Aluw17NLxaJFeONFdx0Hk1083K/6sseAXzUJ3Iw8FRa7A55ia
b283scbyh52kuI3cEEr3vNa/+hU6VwVyRTh5/7lXxlUs5hPymegqPJOy7sFckSGq
pFC0xEESWMvmwx1K+DaV+/7kAwhtW5Kg+eHrwP+N/uC/fj7MGquW97BKHr0Rz8tM
2Ay1AJH4vBn5OlScfLcueudbAG9XDo91W6RbFi6P6IKp+MFsGVHneyxhXQ2WIweI
VfONJ52cZ/DmSyr6E7stjrDav0lSxDH7uMJ11K+qDJog
-----END CERTIFICATE-----
