Certificate:
    Data:
        Version: 3 (0x2)
        Serial Number: 4 (0x4)
        Signature Algorithm: sha256WithRSAEncryption
        Issuer: C=CN, ST=GD, L=GZ, O=SST, OU=hpsocket, CN=hpsocket.org/emailAddress=ldcsaa@gmail.com
        Validity
            Not Before: Jun 26 05:18:07 2024 GMT
            Not After : Jul  9 05:18:07 2243 GMT
        Subject: C=CN, ST=GD, O=SST, OU=hpsocket, CN=hpsocket.org/emailAddress=ldcsaa@gmail.com
        Subject Public Key Info:
            Public Key Algorithm: rsaEncryption
                Public-Key: (2048 bit)
                Modulus:
                    00:e5:1c:f7:f7:cc:3b:22:47:a9:a1:73:c2:45:f3:
                    00:e6:50:20:5f:ad:a5:e2:6d:89:7f:20:16:93:3f:
                    55:78:36:d4:06:08:76:86:46:1b:3e:55:82:0f:5a:
                    b4:a2:82:4f:88:30:0e:4d:8f:96:e8:31:56:d3:ee:
                    27:29:94:4a:ac:86:82:b1:eb:39:aa:c4:03:2d:2e:
                    c1:6a:5c:c0:10:16:eb:fd:4d:5c:4b:c8:74:42:20:
                    1c:b9:1d:7e:38:a9:87:9f:8a:4d:11:37:05:73:23:
                    c0:3c:38:38:df:13:b7:c6:a5:d0:4a:db:cc:7f:60:
                    d7:42:0b:ae:68:bd:92:b1:66:b7:15:fa:12:21:c4:
                    02:bc:d4:d8:93:cb:58:6c:e4:32:ea:58:ab:d4:71:
                    7c:a5:02:f8:17:11:aa:94:91:68:62:db:7c:b6:ed:
                    e9:50:b6:1c:63:2d:a7:bf:16:97:fc:0d:a5:d3:9d:
                    ef:51:3f:3e:9b:05:8c:0f:85:89:07:5c:7d:48:cb:
                    c7:02:c2:dd:57:75:3b:f5:b4:9c:50:a1:41:ed:97:
                    c4:f0:11:77:5b:8d:d7:ef:f4:9f:d9:eb:45:90:e9:
                    52:f0:b7:a3:47:a6:93:8d:19:50:35:b2:c1:2e:73:
                    0f:0d:ff:dd:aa:d3:2b:6c:ed:d5:81:e9:54:66:6d:
                    6c:6b
                Exponent: 65537 (0x10001)
        X509v3 extensions:
            X509v3 Authority Key Identifier: 
                5C:DF:36:6F:79:D8:4D:D1:30:D4:E2:F2:9F:9E:53:5B:B9:F9:FD:5B
            X509v3 Basic Constraints: 
                CA:FALSE
            X509v3 Key Usage: 
                Digital Signature, Non Repudiation, Key Encipherment, Data Encipherment
            X509v3 Subject Alternative Name: 
                DNS:localhost, DNS:hpsocket.org, DNS:*.hpsocket.org, DNS:hpsocket.com, DNS:*.hpsocket.com, DNS:hpsocket.net, DNS:*.hpsocket.net
            X509v3 Subject Key Identifier: 
                7B:1B:62:FB:50:11:3A:48:AF:7F:27:BA:D0:F7:29:76:29:A6:3D:E2
    Signature Algorithm: sha256WithRSAEncryption
    Signature Value:
        80:19:9e:b9:3e:94:43:84:dc:10:d1:eb:e9:03:f1:2e:07:20:
        d6:2d:35:8e:cb:f1:73:07:ce:6a:0f:d4:4b:22:fd:11:03:e8:
        f7:0c:ca:8e:a5:7b:be:aa:f2:83:71:bd:bf:63:80:26:2a:14:
        58:d3:bc:f2:9f:23:c0:3a:13:4f:43:4f:be:74:69:79:75:60:
        6d:f5:99:c8:17:35:55:95:d9:54:4e:25:85:98:86:d5:76:80:
        97:e5:0c:38:c7:01:f0:2f:f5:44:95:a6:7b:f7:04:e1:d0:3f:
        9a:64:39:59:98:27:d7:75:13:79:6d:28:7b:be:85:a6:ac:6f:
        52:24:49:cb:2e:39:49:07:31:bc:91:4c:dc:da:40:37:df:fb:
        5a:23:64:ee:ab:ce:a6:e5:c3:0e:13:21:fc:36:76:bb:8b:ee:
        dc:27:b3:a0:d3:4c:e7:19:9c:8e:18:f0:ad:e0:37:8b:e2:63:
        7e:d8:d3:96:dc:7f:fe:b5:f7:c3:56:42:56:86:f7:24:9c:28:
        fc:3f:8c:01:fd:00:8a:c4:42:cc:8b:13:77:9f:ba:cd:23:a3:
        82:07:a8:10:54:3a:6e:17:8c:a0:5d:c2:a9:56:ed:b2:2a:65:
        72:a5:52:cc:d9:3d:1e:9b:9e:b2:c7:b4:8d:10:e9:6c:61:39:
        41:94:4f:03
-----BEGIN CERTIFICATE-----
MIIEPTCCAyWgAwIBAgIBBDANBgkqhkiG9w0BAQsFADCBgDELMAkGA1UEBhMCQ04x
CzAJBgNVBAgMAkdEMQswCQYDVQQHDAJHWjEMMAoGA1UECgwDU1NUMREwDwYDVQQL
DAhocHNvY2tldDEVMBMGA1UEAwwMaHBzb2NrZXQub3JnMR8wHQYJKoZIhvcNAQkB
FhBsZGNzYWFAZ21haWwuY29tMCAXDTI0MDYyNjA1MTgwN1oYDzIyNDMwNzA5MDUx
ODA3WjBzMQswCQYDVQQGEwJDTjELMAkGA1UECAwCR0QxDDAKBgNVBAoMA1NTVDER
MA8GA1UECwwIaHBzb2NrZXQxFTATBgNVBAMMDGhwc29ja2V0Lm9yZzEfMB0GCSqG
SIb3DQEJARYQbGRjc2FhQGdtYWlsLmNvbTCCASIwDQYJKoZIhvcNAQEBBQADggEP
ADCCAQoCggEBAOUc9/fMOyJHqaFzwkXzAOZQIF+tpeJtiX8gFpM/VXg21AYIdoZG
Gz5Vgg9atKKCT4gwDk2PlugxVtPuJymUSqyGgrHrOarEAy0uwWpcwBAW6/1NXEvI
dEIgHLkdfjiph5+KTRE3BXMjwDw4ON8Tt8al0ErbzH9g10ILrmi9krFmtxX6EiHE
ArzU2JPLWGzkMupYq9RxfKUC+BcRqpSRaGLbfLbt6VC2HGMtp78Wl/wNpdOd71E/
PpsFjA+FiQdcfUjLxwLC3Vd1O/W0nFChQe2XxPARd1uN1+/0n9nrRZDpUvC3o0em
k40ZUDWywS5zDw3/3arTK2zt1YHpVGZtbGsCAwEAAaOByzCByDAfBgNVHSMEGDAW
gBRc3zZvedhN0TDU4vKfnlNbufn9WzAJBgNVHRMEAjAAMAsGA1UdDwQEAwIE8DBu
BgNVHREEZzBlgglsb2NhbGhvc3SCDGhwc29ja2V0Lm9yZ4IOKi5ocHNvY2tldC5v
cmeCDGhwc29ja2V0LmNvbYIOKi5ocHNvY2tldC5jb22CDGhwc29ja2V0Lm5ldIIO
Ki5ocHNvY2tldC5uZXQwHQYDVR0OBBYEFHsbYvtQETpIr38nutD3KXYppj3iMA0G
CSqGSIb3DQEBCwUAA4IBAQCAGZ65PpRDhNwQ0evpA/EuByDWLTWOy/FzB85qD9RL
Iv0RA+j3DMqOpXu+qvKDcb2/Y4AmKhRY07zynyPAOhNPQ0++dGl5dWBt9ZnIFzVV
ldlUTiWFmIbVdoCX5Qw4xwHwL/VElaZ79wTh0D+aZDlZmCfXdRN5bSh7voWmrG9S
JEnLLjlJBzG8kUzc2kA33/taI2Tuq86m5cMOEyH8Nna7i+7cJ7Og00znGZyOGPCt
4DeL4mN+2NOW3H/+tffDVkJWhvcknCj8P4wB/QCKxELMixN3n7rNI6OCB6gQVDpu
F4ygXcKpVu2yKmVypVLM2T0em56yx7SNEOlsYTlBlE8D
-----END CERTIFICATE-----
-----BEGIN ENCRYPTED PRIVATE KEY-----
MIIFLTBXBgkqhkiG9w0BBQ0wSjApBgkqhkiG9w0BBQwwHAQIYjqrrFD23yYCAggA
MAwGCCqGSIb3DQIJBQAwHQYJYIZIAWUDBAEqBBARAfRwxWbz3xqJW2a1AbkuBIIE
0ExshOrbiqOfeZJkSfx76phCByjE3GOrjVvpCOoRII+h9htw/SqYUTdOQFzEyDGc
k6ufg++NmgFg88hKqDDXJsJ2uwCgJxMsx6VL1bOMsnFB2C1rHsXvGW+0Q1WwN7Mg
xx/t0EBxcH6XtW6qajHoK1Am+hUPyBlkXCDdCtVAXLYB96qqPpLEt+tEb+G7yPav
PkRUFVoxOwQxBqZtDf+vEI+VfFMR64rLnCLVcjxU7JFnwfXuCXsM3hceZIvdnEnj
kG+3KktNi/65wFywdbg3I0kCk5VJd+w1jvQOjb+azYLGqGOf2uBnwqoxObLen5r3
dBYcQCOXye2irYQDU37wBFwy5AjFy0iYaKcwQb+x9NhfSf5na++jQBEL7+y6ghOb
8zyYtfF2KX/yple531EIzmKpuo4EIWhUnLqlrU4P3jscc5azTq0MIGfQsYxntmY9
GkTy+riiQDvKRrfJVjs4U2ywHJ+6dWuR27xE/YaQN7s56vSPCgJIe7EcBCWceCF0
1QXGEAoMeq1/G7vfhji4S1lGAMONWEcC2F5eFeowNpxiEONWkh7Aiky86dKmhxr4
okDfTiG9fn6L0xYs8rYbs4vdJ8JT0oEFyzVi8KWihRfm/qS6bRO4nRuynuy4KdoS
vE0IIvnxwk6i700496iAclZ+yED77/fbSClK0vObMiJcBlKhtPKYwBkvy9XhuM0k
HdieJWySviSI1gbpfHiY7MLqduu1Gz6ectDpQx51HL0rfYBxVgbJ7thQiXqzGZ3J
JB/iFqGv+ltrdR1HSeTOOzYLRZVVCoTb3B/t38K2C8x/ufZOSdXl0Ofuujonmtfz
umyTSStGS4zbwV1ztBvqGTkDY85h89fUhL9OiPlP0+itMNTQWWmIfdJ5njAr6nNO
nOXJmCQrhonHBTK/7yTYbjbhl6JuMSoLbWqSjq038x271f7kf6hO8HT4tVeU7VM3
NISjZVoPZQX+5YoF6/zRX+HupXJPESLFcJwURljhR+3nqiFFABnlHg6qf8WZ6ttu
qth/l6PPEwtdvhBVX3BKL7oUd7y7StF/maM/96OHxlc+p8AyqsbUcen2Ioymtw4o
fpwqzWTIwP/D0dgajN3fzTlbg7qvJeTnI+O1+7eC6DiNlKG4Yigj0f3MoTzIjEKu
ic6hRU2Mt3Sd0quayiz6jH5FVI0cI7rScbOYM3K/8kEQpLdpVmtpWUxZHvmqjnsv
JUQF42MuYypuiT4JX4mAW8mPRoLGzhH1LUClCsmaVcqTj7gHaQn8cLKMjzdsNVs8
LCmUimCFFHR109UBCdk7EdHar2KuGBjiy8RQhofBBtTtSve3gQWCaPMT0ofesKR4
bZ8iVUkbDdKQkyTMPDy0/8Val09zxmZ8mDEPASoxqAL/XT5g4H1gfQTq2XykV/M3
Ry17zMY4mCi+wsCLSbuMBECLZ29J9hLt/AeUgHN12LQvZCNTMetr+QrRvB1qVNkd
CzbkOshgt8f+FrLELBytDmsMbs6bSfFI4PRbheH+vD0JsH2Q8JfReiUk96ZZDxyI
9DsyC1Y2Jw1Iu7lx+oMXZXhdNU6dfmi+AvaSeDiSkaXlfN1HdwmPv8P9ZYT0Nx4C
b9fvvxOa1tA+AX6KxHQD3eVoYMP0t3wEZbF9Kq0cw1j/
-----END ENCRYPTED PRIVATE KEY-----
