Certificate:
    Data:
        Version: 3 (0x2)
        Serial Number: 2 (0x2)
        Signature Algorithm: sha256WithRSAEncryption
        Issuer: C=cn, ST=gd, L=gz, O=SST, OU=Jessma, CN=ldcsaa/emailAddress=ldcsaa@gmail.com
        Validity
            Not Before: Jun 19 12:45:46 2024 GMT
            Not After : Jul  2 12:45:46 2243 GMT
        Subject: C=cn, ST=gd, O=SST, OU=Jessma, CN=ldcsaa/emailAddress=ldcsaa@gmail.com
        Subject Public Key Info:
            Public Key Algorithm: rsaEncryption
                Public-Key: (2048 bit)
                Modulus:
                    00:c3:c1:f4:57:23:68:66:69:b0:2f:1c:93:8e:f9:
                    be:aa:90:3f:55:12:5f:f2:0e:21:a6:a2:36:4c:4a:
                    cf:d0:29:cc:fc:c0:f4:e0:7e:01:ec:c7:8a:64:34:
                    9d:4f:44:b9:77:76:ed:4c:63:50:2b:d8:f2:4a:c5:
                    81:92:f7:58:c9:79:83:2a:02:19:9c:e4:4b:f3:13:
                    03:1d:3d:f7:de:82:c6:40:d3:a7:b3:fc:71:7d:45:
                    c4:fd:c3:1a:5a:31:b2:ba:62:7d:42:10:85:5e:32:
                    4d:01:ea:88:94:67:02:13:f4:e0:39:ea:a0:61:3b:
                    2c:10:9a:ea:6a:01:e2:b6:13:89:e8:41:91:f8:e5:
                    1f:0d:01:d6:69:35:c6:f8:31:c4:eb:f1:22:6f:0c:
                    09:40:4e:77:79:84:4d:4c:a9:e8:01:b6:d3:16:4a:
                    a1:80:b4:2d:c0:5e:9a:8f:1b:e5:28:e4:66:0f:70:
                    07:fe:dd:26:86:ef:dd:f5:1c:46:1a:b9:99:1f:3a:
                    ab:cf:03:dc:be:27:78:2e:83:9f:ca:07:50:97:c6:
                    41:e7:bc:e4:48:97:46:4a:1b:e2:bd:c0:a6:4e:67:
                    9c:8f:ca:a8:b0:30:87:ea:d0:4b:55:f3:63:7b:89:
                    82:ff:d9:9c:0a:a5:f5:e8:69:bb:7d:65:27:d4:34:
                    ac:ff
                Exponent: 65537 (0x10001)
        X509v3 extensions:
            X509v3 Basic Constraints: 
                CA:FALSE
            X509v3 Subject Key Identifier: 
                50:40:65:F0:68:D8:AF:E2:51:9E:2E:AF:05:89:82:F8:46:F6:B8:CD
            X509v3 Authority Key Identifier: 
                5C:DF:36:6F:79:D8:4D:D1:30:D4:E2:F2:9F:9E:53:5B:B9:F9:FD:5B
    Signature Algorithm: sha256WithRSAEncryption
    Signature Value:
        8c:04:b1:0e:9e:48:ac:48:c6:1d:f4:3f:70:2b:39:12:8f:ac:
        56:2f:33:49:d7:f0:36:99:f5:6c:d4:29:9f:9e:56:2e:8d:de:
        cf:6e:9b:17:17:83:0e:23:7b:74:51:59:d7:85:ac:d9:cc:d7:
        90:a4:2f:b2:09:46:00:da:bf:2b:44:a0:64:02:53:56:5d:b4:
        fc:e9:23:07:77:50:56:81:fa:b7:d8:26:f9:76:b6:0d:fd:e7:
        05:13:69:68:9c:d9:b5:fa:42:50:22:78:1a:e5:04:a5:2d:8b:
        a2:a1:b6:55:00:5a:53:e2:30:94:df:40:85:c2:d2:be:13:ce:
        25:61:6b:83:28:d9:fa:52:bc:65:88:8a:67:0a:db:e6:bc:fa:
        3e:84:89:4a:7c:c1:30:7a:ff:2b:84:ab:6b:d3:b5:8f:63:75:
        a7:cb:87:34:69:c4:79:df:4f:2a:54:08:c8:8e:da:12:e6:e4:
        f1:92:1a:24:5e:aa:5f:b4:e8:21:1a:4e:8e:c1:ee:57:0b:69:
        a4:b8:b6:01:1c:cb:41:ab:64:98:0c:db:af:4a:02:8d:04:b8:
        78:5f:e8:2a:29:8c:b1:73:46:ce:c3:4a:2b:69:16:90:96:c2:
        ad:d0:5a:5d:bc:62:69:ba:fc:87:5c:c1:f3:81:3a:a1:91:c8:
        ca:a5:5a:29
-----BEGIN CERTIFICATE-----
MIIDrTCCApWgAwIBAgIBAjANBgkqhkiG9w0BAQsFADB4MQswCQYDVQQGEwJjbjEL
MAkGA1UECAwCZ2QxCzAJBgNVBAcMAmd6MQwwCgYDVQQKDANTU1QxDzANBgNVBAsM
Bkplc3NtYTEPMA0GA1UEAwwGbGRjc2FhMR8wHQYJKoZIhvcNAQkBFhBsZGNzYWFA
Z21haWwuY29tMCAXDTI0MDYxOTEyNDU0NloYDzIyNDMwNzAyMTI0NTQ2WjBrMQsw
CQYDVQQGEwJjbjELMAkGA1UECAwCZ2QxDDAKBgNVBAoMA1NTVDEPMA0GA1UECwwG
SmVzc21hMQ8wDQYDVQQDDAZsZGNzYWExHzAdBgkqhkiG9w0BCQEWEGxkY3NhYUBn
bWFpbC5jb20wggEiMA0GCSqGSIb3DQEBAQUAA4IBDwAwggEKAoIBAQDDwfRXI2hm
abAvHJOO+b6qkD9VEl/yDiGmojZMSs/QKcz8wPTgfgHsx4pkNJ1PRLl3du1MY1Ar
2PJKxYGS91jJeYMqAhmc5EvzEwMdPffegsZA06ez/HF9RcT9wxpaMbK6Yn1CEIVe
Mk0B6oiUZwIT9OA56qBhOywQmupqAeK2E4noQZH45R8NAdZpNcb4McTr8SJvDAlA
Tnd5hE1MqegBttMWSqGAtC3AXpqPG+Uo5GYPcAf+3SaG7931HEYauZkfOqvPA9y+
J3gug5/KB1CXxkHnvORIl0ZKG+K9wKZOZ5yPyqiwMIfq0EtV82N7iYL/2ZwKpfXo
abt9ZSfUNKz/AgMBAAGjTTBLMAkGA1UdEwQCMAAwHQYDVR0OBBYEFFBAZfBo2K/i
UZ4urwWJgvhG9rjNMB8GA1UdIwQYMBaAFFzfNm952E3RMNTi8p+eU1u5+f1bMA0G
CSqGSIb3DQEBCwUAA4IBAQCMBLEOnkisSMYd9D9wKzkSj6xWLzNJ1/A2mfVs1Cmf
nlYujd7PbpsXF4MOI3t0UVnXhazZzNeQpC+yCUYA2r8rRKBkAlNWXbT86SMHd1BW
gfq32Cb5drYN/ecFE2lonNm1+kJQInga5QSlLYuiobZVAFpT4jCU30CFwtK+E84l
YWuDKNn6UrxliIpnCtvmvPo+hIlKfMEwev8rhKtr07WPY3Wny4c0acR5308qVAjI
jtoS5uTxkhokXqpftOghGk6Owe5XC2mkuLYBHMtBq2SYDNuvSgKNBLh4X+gqKYyx
c0bOw0oraRaQlsKt0FpdvGJpuvyHXMHzgTqhkcjKpVop
-----END CERTIFICATE-----
-----BEGIN ENCRYPTED PRIVATE KEY-----
MIIFLTBXBgkqhkiG9w0BBQ0wSjApBgkqhkiG9w0BBQwwHAQIB0GHhdl+5uoCAggA
MAwGCCqGSIb3DQIJBQAwHQYJYIZIAWUDBAEqBBDIN3og6KN0sj8H/XFjDdKYBIIE
0FAdi+2dzvsxG8YZjFi3vK6gYVg+7DnLhu58Bkfcclt4CcFQe4RTBcoPFdA86deu
a7pFngr4mmBsRIpxli4q5tq4UZrqHvAngCjN/EWbKyPHnHSW5etotTBjGgQyrhBv
xwBar5Jrymtc8F+O9Zc1ipUH1837KippcvJqQijYkg2n0OURxVTONAxtkoxMTbW6
R+yVSILpn9g82dx8m652Dj0uqufdW0gwGzQRECEh0kC8vReRy6Htcpd6u3kr4aoi
VMa+6RbLCQqVqG18ACXVBKAXD/shkPxZ/QK6Nhe4IB4uucbydhWPXZEZPQdpBUoz
x42buDIIMR4Rk7fL4LEIzPFhF+FXD7OMJ3sYnzeb073KxHP8osp+NknyUYGQ4xpa
7M055prnwt3Hk5ys9tcyPr5a/epWGVKwxo9Eb9AKCgb6yZzErs/afVp+ISM79E2i
ZEsE84F7iqO3iuZSM8ihfwoPv1rwjOlr/xsvBe0PRUx6Zztysz/O05pPuJTHmZDA
rtfyCc3Y0esQBSi2ovrkGlP6gYmBMAzOQ4elbce2lc4qrUsQOlFHWQeWczyZQEjh
rSa3Qo8WeCmLgMw+BSsNi9iFEKUT49/kCVv6I/oACS+/hLqT9bDRnOsP+KcRNrFk
ZePYRIcHiXRXr2Ix48TUCJ5GeRBnu4eO6Mcod9ixrkQkowSygAMlH0bmIuceappK
k26bzu/b3XGyTpiBRumkEFNM/ZgjTrmQWsvXYd+64NJBk12YNOPqMoOK5srJu5k0
Q0sppfppA0OQCbUKEUH2QnH54JoHhYDIw+h0dyFUAGI8gxALzEH8nVFDRrSpL8tU
uJXN7z7/Cb2Z3VNgz5Zztm2s8t3PY8Prkf+wwI00Wv4V9stBitb1hzetLI7xCgJd
HBq41Vuq3t2vedvR8+liinyFuPzPZ1TQBXOmNpwVfl2bOdC2IbeJUe3sP8TfasKY
hfYR+PJXMF9t+CQjk4AdhUbv8qpJBbjmCH/dpM7lohSHWa8E2mvXvwKg7aNuDDQi
unMBL7MW8DD5zfnOLs6BAq6XUx7BGv5aQ72qdGPhDEZhYhmdJZak4GpP0bw+T9O1
XWuineVWuXmk5oNTLkTWL6u75fDLRtwXwt8iYj4kXlLSdFAmTiR97jIqhWJ2xkW6
Cc+/c8DICyfTGYtlWSFmE2y8sX0wgujwQdYGmt53jNqt0aTBOalZQSrAq1i7homC
S/IEqb5EXp80+ivEWpS7jxgAGcvsXECLC3PQuhjv3l/4NVyYeQhy77raO7rQ/YJ7
i1tT9C8LfFbeWeWnJUtJXh1GJU5humpzY4heO5DUOcmiOk0JZofBObU2SfT2OCD0
goN9HcFa04UVEPh1yWGOkR+CrZh0r/5+mJBM2VfZbcxh9uXzN1epi8sCyfPabz4O
svgXa+Pq5jta9y228px/esCFZHeFITVZ7Cs+ouDO8xqVN4ntTojVWANPWandxH8P
YzG9fNr6FUK7FkmLvsVg+ag6+ibjF0pthZ1e3cL3YZlROj5/GP/j3EKGsxkqWZ6e
CjXe/Xv0jyNruVFN5T0+4nbxAlTu2huRdgEbbiOBORJEIxhD9NxkntSHy5l9dHFs
iyuD/h035UgRN+ARKQiyp7C8Xo/X857VBWaF1t+oWhuG
-----END ENCRYPTED PRIVATE KEY-----
