Certificate:
    Data:
        Version: 3 (0x2)
        Serial Number: 1 (0x1)
        Signature Algorithm: sha256WithRSAEncryption
        Issuer: C=cn, ST=gd, L=gz, O=SST, OU=Jessma, CN=ldcsaa/emailAddress=ldcsaa@gmail.com
        Validity
            Not Before: Jun 19 12:44:55 2024 GMT
            Not After : Jul  2 12:44:55 2243 GMT
        Subject: C=cn, ST=gd, O=SST, OU=Jessma, CN=ldcsaa/emailAddress=ldcsaa@gmail.com
        Subject Public Key Info:
            Public Key Algorithm: rsaEncryption
                Public-Key: (2048 bit)
                Modulus:
                    00:ed:57:f2:81:e0:6a:37:05:72:6f:1a:31:69:05:
                    f4:38:03:1d:df:28:f1:64:d2:ef:b8:59:bf:fc:50:
                    e4:8e:79:66:61:d3:f2:52:f4:9d:5c:27:5a:c6:5e:
                    2e:c2:3d:82:88:e1:6b:d2:86:45:e9:14:ba:dc:ec:
                    20:39:fe:55:d8:b6:20:c3:ca:29:af:05:3c:1c:10:
                    cc:48:5e:d3:9c:8c:1d:12:65:3a:c4:7e:91:5c:7b:
                    f0:76:aa:50:72:76:de:04:9b:58:0f:3d:3a:80:d3:
                    e4:72:23:df:ff:1f:ac:e8:5c:f5:a9:ca:75:84:c2:
                    84:53:8e:c4:e7:b6:48:0c:64:16:b4:dc:34:35:12:
                    56:ad:03:ff:7d:bf:aa:fd:9a:84:8b:6a:9c:6a:df:
                    ad:11:96:90:a5:61:bf:1d:84:05:96:03:d6:a8:bb:
                    42:39:c8:a0:f5:97:1e:ca:3f:fe:9e:7b:3d:7c:df:
                    9e:9b:bc:5a:32:3b:2c:f2:2c:9b:e0:cc:59:f4:25:
                    7d:b0:8f:e2:36:8d:59:37:2c:86:0b:6d:9c:e9:a1:
                    ff:97:7b:9f:fe:53:63:0a:75:c2:55:fd:be:1e:d0:
                    83:26:ae:62:47:ab:77:e7:ce:34:07:a7:4b:de:e8:
                    ef:64:90:c3:f8:eb:30:ec:4a:23:37:46:47:f1:48:
                    46:4b
                Exponent: 65537 (0x10001)
        X509v3 extensions:
            X509v3 Basic Constraints: 
                CA:FALSE
            X509v3 Subject Key Identifier: 
                E4:B3:A4:85:39:42:B4:51:0B:A8:41:0B:C3:A1:99:F9:B3:07:7D:83
            X509v3 Authority Key Identifier: 
                BB:FE:33:BD:FD:D7:79:CA:41:89:15:EF:7F:2E:AD:4C:0B:06:8D:DF
    Signature Algorithm: sha256WithRSAEncryption
    Signature Value:
        bf:91:97:15:a2:dd:af:71:78:12:2b:ff:f8:65:6e:f4:76:f1:
        e1:56:c7:7e:c3:fb:51:6a:f8:44:2f:0c:da:25:84:df:dc:64:
        ae:8b:cc:5d:32:d8:9b:5d:ac:d8:1e:15:c1:8a:f4:45:2a:57:
        83:ba:0d:c8:c4:ee:b0:37:8b:46:33:7f:ec:06:f2:ab:72:56:
        19:7f:4a:8b:1f:59:5a:c5:53:58:3c:45:29:16:5f:14:6d:18:
        cb:cf:31:59:5e:06:40:d3:29:83:98:11:2f:b3:a8:7f:92:be:
        f0:7d:e4:70:15:9a:6e:18:10:39:9b:72:ba:fb:32:65:2b:e9:
        26:64:6f:38:7b:79:29:31:61:d1:54:74:ae:c6:a1:3d:b5:aa:
        87:a5:5a:8d:5f:09:04:bc:bc:e2:5b:ca:71:fc:45:eb:23:c0:
        30:2a:b6:1a:63:8e:19:ac:9e:48:a7:b2:78:b1:13:9c:31:71:
        53:c6:60:3c:aa:40:30:00:54:2e:bb:c3:cf:d0:99:0b:b7:09:
        ed:d3:4a:16:f4:04:8e:66:81:b8:bf:f0:85:18:15:35:52:ea:
        e1:34:0f:c9:59:90:21:65:ed:13:78:13:34:cb:c9:57:13:79:
        51:ce:91:59:1d:58:ba:56:0c:06:fe:58:6a:35:25:49:6c:46:
        e2:d2:df:95
-----BEGIN CERTIFICATE-----
MIIDrTCCApWgAwIBAgIBATANBgkqhkiG9w0BAQsFADB4MQswCQYDVQQGEwJjbjEL
MAkGA1UECAwCZ2QxCzAJBgNVBAcMAmd6MQwwCgYDVQQKDANTU1QxDzANBgNVBAsM
Bkplc3NtYTEPMA0GA1UEAwwGbGRjc2FhMR8wHQYJKoZIhvcNAQkBFhBsZGNzYWFA
Z21haWwuY29tMCAXDTI0MDYxOTEyNDQ1NVoYDzIyNDMwNzAyMTI0NDU1WjBrMQsw
CQYDVQQGEwJjbjELMAkGA1UECAwCZ2QxDDAKBgNVBAoMA1NTVDEPMA0GA1UECwwG
SmVzc21hMQ8wDQYDVQQDDAZsZGNzYWExHzAdBgkqhkiG9w0BCQEWEGxkY3NhYUBn
bWFpbC5jb20wggEiMA0GCSqGSIb3DQEBAQUAA4IBDwAwggEKAoIBAQDtV/KB4Go3
BXJvGjFpBfQ4Ax3fKPFk0u+4Wb/8UOSOeWZh0/JS9J1cJ1rGXi7CPYKI4WvShkXp
FLrc7CA5/lXYtiDDyimvBTwcEMxIXtOcjB0SZTrEfpFce/B2qlBydt4Em1gPPTqA
0+RyI9//H6zoXPWpynWEwoRTjsTntkgMZBa03DQ1ElatA/99v6r9moSLapxq360R
lpClYb8dhAWWA9aou0I5yKD1lx7KP/6eez18356bvFoyOyzyLJvgzFn0JX2wj+I2
jVk3LIYLbZzpof+Xe5/+U2MKdcJV/b4e0IMmrmJHq3fnzjQHp0ve6O9kkMP46zDs
SiM3RkfxSEZLAgMBAAGjTTBLMAkGA1UdEwQCMAAwHQYDVR0OBBYEFOSzpIU5QrRR
C6hBC8OhmfmzB32DMB8GA1UdIwQYMBaAFLv+M73913nKQYkV738urUwLBo3fMA0G
CSqGSIb3DQEBCwUAA4IBAQC/kZcVot2vcXgSK//4ZW70dvHhVsd+w/tRavhELwza
JYTf3GSui8xdMtibXazYHhXBivRFKleDug3IxO6wN4tGM3/sBvKrclYZf0qLH1la
xVNYPEUpFl8UbRjLzzFZXgZA0ymDmBEvs6h/kr7wfeRwFZpuGBA5m3K6+zJlK+km
ZG84e3kpMWHRVHSuxqE9taqHpVqNXwkEvLziW8px/EXrI8AwKrYaY44ZrJ5Ip7J4
sROcMXFTxmA8qkAwAFQuu8PP0JkLtwnt00oW9ASOZoG4v/CFGBU1UurhNA/JWZAh
Ze0TeBM0y8lXE3lRzpFZHVi6VgwG/lhqNSVJbEbi0t+V
-----END CERTIFICATE-----
-----BEGIN ENCRYPTED PRIVATE KEY-----
MIIFLTBXBgkqhkiG9w0BBQ0wSjApBgkqhkiG9w0BBQwwHAQIXBBsWXfwzlQCAggA
MAwGCCqGSIb3DQIJBQAwHQYJYIZIAWUDBAEqBBCr2cQjtzUBaxc8pxIxdT8tBIIE
0FJ1wkvdSZKcpX3+0V1eVfdA29o3tcuTG1KMN4TP8IFHl0f8XjSE2RKCZSdBAb4W
hQ/oACKmWJCGzBLGaOWUcEXRK+xlJaKqhECZDhDY9N49kG4PTScyAQzEbSo8NP12
ad6uSBlRjAwTrUZpwxThC7E3pyAu2a7g4Fl6ZOp/kldXKS8f3vIxvavo3P2gf0nx
rbsdeso9pSweQ9lRtaIMlqJXbQH5aTcRoQJtDtQEzqcE+0/AdiDbTtXLc6f8A87b
kd+eOE7YgzM8iLQwjLPAKMc1qWX4wtSHxQGk1Hupx1BlwOxfUMzLrv/VpvnwRijE
pZN7uD4AbLaYwSGYti1kJribKJQg/kIxkdT+V76C9FIJB/RbY4gum3M9QMO4Qog8
ztiTGsJ3jk05XdK82rUAIgqflb90ZZTBISdI5hPcm8V1mkAxEsKBPXTQ4hkmGagY
ptqKLVm7OO72pwg44nf8hBG2cH1MfZRwXhPcLp8jnZgXatXQYZtUD8pH6J2d/ke7
0BKObBAk0WwTG1/TFtpJyCDaOl6Rqrgb4BXYVqKTkgOc9IgAYkTqgZYHUBvv1GQ7
s1Q+3cbb+GXp/BpuHYH8mKiwylB+8R8K0xHHquS7xUTHxdEZ8L5wWG4/bEAReqlk
J7nNepa9bELfKF4DIKl24HIoMojVSCyCPUDUIq1T8dBI77PfskhTeSzf73LRuMwW
C5RhNSP7NEBpIUm0VAt8dgEkon2l+NMyHdvYDcurOdhgmm4eO6N1gt9QSbyYXN+4
YzB6R3qgLJJlU5WXAAWRpt/QlylN9lRuhdS7VPRQ+mh/IUJjxkeOwSDr7CHQMU6H
wT8BdRFtVI8fA2a0Gz+QJoYR/Imd3QIXMCA9ohK+Chh52HJzd2PdLD5DgPQE8wyB
YM1Ss4xIXuiV+P4x+n69mN+NcDnsT0Gg8YLNvxI7yJsEnK5LTQdAjLX6uoMOi39M
d4IQlVlrli+h9to7fd6Y/YJvIryPQD0bAZnNG6jNrA/7+gnu8ELJxjLER4TlTHE2
2rsBV/xIGUWqpvtcCccaaW3BnZgc77ZpXRvdu6NwcPXQbjB9IK7bpvLGBGKVmZjD
5lzyfzS2u4n76S10TdJbtqLx802TZijeubvhxO1ApEv7UBeHtl7ZNO9N6ici6jRR
M+oiGMvkEZknRoQpbvXhewdt4I4+IKmj8VwAiHFVm35UgbLjiJfRxCQ36PiJBykb
WF1ERXa3j7gwJWzl9kty0hTY8QI+PJD3KnNvjio3aS47Xnzl3e/X7O71oc789YML
De/uGOjWiaYdK7Sjk5jEzcZKGCT94YEmSJCCagpevZG92ZwSrQe7ya68CB29h6gM
rJYJgzAFNOLa0Y53UuHgcQzJf+l+TvOKSMMPHsjm7scVeRPdilZY/1JbbbUtA0e+
moFHYMDwg2xc5tdIjHeEWg1tPztaM67bKF6pOJNDjwh2fANXchE8tm5kHMCUvR4u
KmzHK6C34DsrTyufRKXSA7tcm9PGoXMZuyd0yK9L7wAKytv8l9dKP8UT9Deqw8JH
EpCFnssREQo109p3sQ7iwhbfAVSnXEeoLoLrdrOdKbUPfEvxoPWtbzOlnrQfQq2j
xSuiN5XslCzzzWbUzRW0Px4UylLIKKSGR32NjuVwnuP4
-----END ENCRYPTED PRIVATE KEY-----
