Certificate:
    Data:
        Version: 3 (0x2)
        Serial Number: 1 (0x1)
    Signature Algorithm: sha256WithRSAEncryption
        Issuer: C=cn, ST=gd, L=gz, O=hpsocket, OU=sst, CN=www.hpsocket.org/emailAddress=ldcsaa@21cn.com
        Validity
            Not Before: Jul 29 00:00:00 2016 GMT
            Not After : Jan  1 00:00:00 2026 GMT
        Subject: C=cn, ST=gd, O=hpsocket, OU=sst, CN=www.hpsocket.org/emailAddress=ldcsaa@21cn.com
        Subject Public Key Info:
            Public Key Algorithm: rsaEncryption
                Public-Key: (2048 bit)
                Modulus:
                    00:b6:7d:1d:d7:bf:e5:1f:a5:7b:f8:ca:c6:c9:5b:
                    54:01:9b:8f:76:0d:58:95:7e:46:0d:b0:75:ee:b6:
                    af:97:92:05:64:8a:22:34:c3:38:e7:65:12:ca:15:
                    04:43:65:fa:32:08:b6:95:05:cb:96:47:d1:18:1c:
                    4e:c8:5d:5c:1f:dc:6e:75:2d:c5:ed:35:ae:5d:39:
                    c8:c9:ee:cd:69:bd:a0:b1:d2:ea:99:0e:98:22:b8:
                    25:aa:08:6f:51:81:94:b4:5c:bf:05:c2:7c:26:0b:
                    e2:a3:72:72:0c:01:81:ec:3f:0b:ff:72:61:29:24:
                    fc:8a:ae:d7:94:3e:e0:50:43:ba:75:dd:5c:12:1f:
                    54:42:c2:47:fe:dc:7c:27:1c:22:3f:29:f8:70:9c:
                    a3:ef:d1:2e:c0:9e:b9:0e:d1:df:62:ee:1d:12:ac:
                    e4:3b:e1:37:22:11:f4:bf:08:d1:d3:52:0c:e1:4a:
                    c3:23:51:3d:b1:eb:06:f6:f3:b9:c0:1c:cf:a0:c6:
                    6f:54:6d:e7:fd:b1:c7:19:d2:3b:4e:fc:ba:ed:66:
                    5f:b5:7b:b9:6b:41:45:e5:95:2a:a8:e4:39:ce:90:
                    bc:26:48:f3:f2:7d:45:9b:c7:32:e7:10:9d:70:67:
                    d2:0c:03:d6:2e:75:ec:1c:40:c1:a6:73:0a:d4:87:
                    eb:63
                Exponent: 65537 (0x10001)
        X509v3 extensions:
            X509v3 Basic Constraints: 
                CA:FALSE
            Netscape Comment: 
                OpenSSL Generated Certificate
            X509v3 Subject Key Identifier: 
                8F:8B:05:2C:99:13:E1:F0:78:49:99:1A:AA:B1:C6:42:4C:0F:ED:89
            X509v3 Authority Key Identifier: 
                keyid:73:3B:7E:C8:90:A0:20:A3:DC:FB:09:D1:20:F1:1D:B6:19:5A:E6:98

    Signature Algorithm: sha256WithRSAEncryption
         8e:86:ec:61:97:92:9b:74:67:8d:db:bc:91:e7:65:67:3c:7d:
         0f:41:d1:4b:4b:93:f0:88:2d:64:45:19:96:9b:8e:ae:77:5b:
         5f:78:fd:10:86:52:eb:1a:9f:f4:a9:8f:8b:d9:fe:e7:3d:fc:
         35:f5:6d:e3:14:06:d0:8b:c3:55:2e:63:e5:0e:84:90:37:3e:
         c2:6a:0a:6e:04:e7:1b:26:2a:72:b2:f1:5e:8d:9b:25:7b:1f:
         d5:05:8f:68:dd:b4:3d:4f:db:72:2e:d6:67:56:96:4d:e3:5f:
         a5:50:b2:51:7a:c3:3a:93:79:06:57:b2:35:ff:53:9a:9b:80:
         73:7a:7e:37:48:dd:b4:7a:3d:10:9d:5c:fe:c3:93:56:a4:ab:
         cd:6c:13:3a:b0:ab:8b:e8:3c:61:2d:6b:c7:dd:71:02:1c:99:
         29:fd:36:c1:e8:f2:9c:0a:93:20:bf:f5:f8:f3:f0:55:8f:e4:
         02:e4:a8:bc:05:06:db:30:6d:88:cf:61:80:8f:8b:d0:bf:a0:
         ad:b9:d0:67:76:e0:f4:c2:e4:62:7a:ae:1f:75:cc:3d:30:b1:
         f3:e9:21:1e:09:59:de:6e:91:ea:1c:33:a4:9a:50:99:4e:d8:
         8b:20:40:c6:04:3a:17:c4:42:8c:5a:87:79:67:88:5a:58:e7:
         2e:aa:75:c8
-----BEGIN CERTIFICATE-----
MIID8DCCAtigAwIBAgIBATANBgkqhkiG9w0BAQsFADCBgzELMAkGA1UEBhMCY24x
CzAJBgNVBAgMAmdkMQswCQYDVQQHDAJnejERMA8GA1UECgwIaHBzb2NrZXQxDDAK
BgNVBAsMA3NzdDEZMBcGA1UEAwwQd3d3Lmhwc29ja2V0Lm9yZzEeMBwGCSqGSIb3
DQEJARYPbGRjc2FhQDIxY24uY29tMB4XDTE2MDcyOTAwMDAwMFoXDTI2MDEwMTAw
MDAwMFowdjELMAkGA1UEBhMCY24xCzAJBgNVBAgMAmdkMREwDwYDVQQKDAhocHNv
Y2tldDEMMAoGA1UECwwDc3N0MRkwFwYDVQQDDBB3d3cuaHBzb2NrZXQub3JnMR4w
HAYJKoZIhvcNAQkBFg9sZGNzYWFAMjFjbi5jb20wggEiMA0GCSqGSIb3DQEBAQUA
A4IBDwAwggEKAoIBAQC2fR3Xv+UfpXv4ysbJW1QBm492DViVfkYNsHXutq+XkgVk
iiI0wzjnZRLKFQRDZfoyCLaVBcuWR9EYHE7IXVwf3G51LcXtNa5dOcjJ7s1pvaCx
0uqZDpgiuCWqCG9RgZS0XL8FwnwmC+KjcnIMAYHsPwv/cmEpJPyKrteUPuBQQ7p1
3VwSH1RCwkf+3HwnHCI/KfhwnKPv0S7AnrkO0d9i7h0SrOQ74TciEfS/CNHTUgzh
SsMjUT2x6wb287nAHM+gxm9Ubef9sccZ0jtO/LrtZl+1e7lrQUXllSqo5DnOkLwm
SPPyfUWbxzLnEJ1wZ9IMA9YudewcQMGmcwrUh+tjAgMBAAGjezB5MAkGA1UdEwQC
MAAwLAYJYIZIAYb4QgENBB8WHU9wZW5TU0wgR2VuZXJhdGVkIENlcnRpZmljYXRl
MB0GA1UdDgQWBBSPiwUsmRPh8HhJmRqqscZCTA/tiTAfBgNVHSMEGDAWgBRzO37I
kKAgo9z7CdEg8R22GVrmmDANBgkqhkiG9w0BAQsFAAOCAQEAjobsYZeSm3Rnjdu8
kedlZzx9D0HRS0uT8IgtZEUZlpuOrndbX3j9EIZS6xqf9KmPi9n+5z38NfVt4xQG
0IvDVS5j5Q6EkDc+wmoKbgTnGyYqcrLxXo2bJXsf1QWPaN20PU/bci7WZ1aWTeNf
pVCyUXrDOpN5BleyNf9TmpuAc3p+N0jdtHo9EJ1c/sOTVqSrzWwTOrCri+g8YS1r
x91xAhyZKf02wejynAqTIL/1+PPwVY/kAuSovAUG2zBtiM9hgI+L0L+grbnQZ3bg
9MLkYnquH3XMPTCx8+khHglZ3m6R6hwzpJpQmU7YiyBAxgQ6F8RCjFqHeWeIWljn
Lqp1yA==
-----END CERTIFICATE-----
