Certificate:
    Data:
        Version: 3 (0x2)
        Serial Number: 3 (0x3)
        Signature Algorithm: sha256WithRSAEncryption
        Issuer: C=CN, ST=GD, L=GZ, O=SST, OU=Jessma, CN=jessma.org/emailAddress=ldcsaa@21cn.com
        Validity
            Not Before: Jun 26 05:16:54 2024 GMT
            Not After : Jul  9 05:16:54 2243 GMT
        Subject: C=CN, ST=GD, O=SST, OU=Jessma, CN=jessma.org/emailAddress=ldcsaa@21cn.com
        Subject Public Key Info:
            Public Key Algorithm: rsaEncryption
                Public-Key: (2048 bit)
                Modulus:
                    00:bb:c7:78:a5:2e:36:6d:1f:66:4a:ba:87:e3:e0:
                    5a:55:97:f2:05:db:20:c8:e7:9d:37:61:06:f0:96:
                    5c:69:ee:43:44:6a:a4:f2:8c:95:20:98:b9:59:05:
                    bc:07:43:34:c3:c5:f3:e4:fe:76:7f:9b:7c:54:1e:
                    c5:63:c1:73:19:a8:d3:6e:7e:0b:52:2d:a0:68:2b:
                    80:af:04:03:93:90:42:e9:84:83:99:74:96:0f:a6:
                    e6:94:eb:a5:b4:a6:18:c6:54:cd:91:e0:41:66:fe:
                    b4:d7:75:d6:7b:37:ab:2a:dd:f6:04:2f:46:f1:a9:
                    42:7a:7d:6f:fe:d1:08:5d:35:2c:1f:75:eb:dd:00:
                    78:0e:98:69:2b:4e:3e:6b:20:b2:7c:03:b1:70:6e:
                    47:2e:57:9b:c1:59:9f:bd:66:13:46:e1:cb:2a:02:
                    31:f9:2c:b2:c2:9f:98:49:76:11:3d:5a:a5:29:fa:
                    c9:5f:22:e5:c4:e6:f6:46:0e:90:90:ad:c7:39:23:
                    5a:96:b7:c5:4d:7d:dc:33:68:10:cb:fe:15:e5:ee:
                    90:22:56:96:51:bd:0c:72:26:06:d4:30:ba:f6:42:
                    b6:05:c2:b3:e4:82:99:dc:53:b4:7b:03:24:ff:0b:
                    4b:4e:be:03:d5:65:bf:88:1a:a6:df:f8:da:db:1c:
                    49:37
                Exponent: 65537 (0x10001)
        X509v3 extensions:
            X509v3 Authority Key Identifier: 
                DE:3D:CF:8F:03:CB:09:A8:0F:87:0D:4D:08:02:EA:79:F6:40:9A:14
            X509v3 Basic Constraints: 
                CA:FALSE
            X509v3 Key Usage: 
                Digital Signature, Non Repudiation, Key Encipherment, Data Encipherment
            X509v3 Subject Alternative Name: 
                DNS:localhost, DNS:jessma.org, DNS:*.jessma.org, DNS:jessma.com, DNS:*.jessma.com, DNS:jessma.net, DNS:*.jessma.net
            X509v3 Subject Key Identifier: 
                59:F7:B5:52:91:FB:9E:E6:CF:3F:3A:46:2F:51:EF:A5:5D:48:2C:1F
    Signature Algorithm: sha256WithRSAEncryption
    Signature Value:
        bc:cd:50:ae:14:cb:fc:8d:70:b3:87:e8:cc:a4:25:7e:67:77:
        4b:40:1d:7c:52:57:e0:13:13:6e:9f:3c:a6:ba:16:a6:3a:cd:
        66:de:99:27:71:04:4c:72:9c:5e:ed:33:e2:09:f7:8d:6c:ba:
        d5:df:1b:0c:2c:ad:61:05:e3:a4:6d:cd:6b:b6:26:e6:37:3f:
        13:bc:1c:f9:75:02:53:19:56:e3:51:bf:1e:76:8b:68:85:5c:
        72:64:5b:cb:13:0e:5a:4a:f7:c9:45:f5:b5:cf:2b:c5:44:8a:
        5b:36:41:99:8b:49:e3:d4:33:22:f3:73:0e:ea:0b:92:51:38:
        e2:0f:17:ba:ab:19:66:53:99:db:04:56:27:17:3f:84:31:b4:
        32:42:a1:46:77:35:9a:a7:9a:a1:8f:fb:f5:06:4d:13:54:6f:
        5f:f6:91:44:9a:12:97:b3:50:d3:4f:eb:30:ff:0c:53:a3:8c:
        cc:fb:db:22:c3:15:2b:6b:93:f8:15:59:1b:44:59:25:76:86:
        8a:44:09:bf:16:19:ac:35:59:75:16:4b:ea:d5:8f:b5:2d:b0:
        23:8f:4a:93:31:87:34:7e:12:d4:59:e2:fd:d0:ea:dc:fd:ab:
        c7:38:ac:31:8d:60:b4:a4:0b:79:56:18:79:34:03:0f:26:e3:
        4d:65:a2:4e
-----BEGIN CERTIFICATE-----
MIIEJjCCAw6gAwIBAgIBAzANBgkqhkiG9w0BAQsFADB7MQswCQYDVQQGEwJDTjEL
MAkGA1UECAwCR0QxCzAJBgNVBAcMAkdaMQwwCgYDVQQKDANTU1QxDzANBgNVBAsM
Bkplc3NtYTETMBEGA1UEAwwKamVzc21hLm9yZzEeMBwGCSqGSIb3DQEJARYPbGRj
c2FhQDIxY24uY29tMCAXDTI0MDYyNjA1MTY1NFoYDzIyNDMwNzA5MDUxNjU0WjBu
MQswCQYDVQQGEwJDTjELMAkGA1UECAwCR0QxDDAKBgNVBAoMA1NTVDEPMA0GA1UE
CwwGSmVzc21hMRMwEQYDVQQDDApqZXNzbWEub3JnMR4wHAYJKoZIhvcNAQkBFg9s
ZGNzYWFAMjFjbi5jb20wggEiMA0GCSqGSIb3DQEBAQUAA4IBDwAwggEKAoIBAQC7
x3ilLjZtH2ZKuofj4FpVl/IF2yDI5503YQbwllxp7kNEaqTyjJUgmLlZBbwHQzTD
xfPk/nZ/m3xUHsVjwXMZqNNufgtSLaBoK4CvBAOTkELphIOZdJYPpuaU66W0phjG
VM2R4EFm/rTXddZ7N6sq3fYEL0bxqUJ6fW/+0QhdNSwfdevdAHgOmGkrTj5rILJ8
A7FwbkcuV5vBWZ+9ZhNG4csqAjH5LLLCn5hJdhE9WqUp+slfIuXE5vZGDpCQrcc5
I1qWt8VNfdwzaBDL/hXl7pAiVpZRvQxyJgbUMLr2QrYFwrPkgpncU7R7AyT/C0tO
vgPVZb+IGqbf+NrbHEk3AgMBAAGjgb8wgbwwHwYDVR0jBBgwFoAU3j3PjwPLCagP
hw1NCALqefZAmhQwCQYDVR0TBAIwADALBgNVHQ8EBAMCBPAwYgYDVR0RBFswWYIJ
bG9jYWxob3N0ggpqZXNzbWEub3JnggwqLmplc3NtYS5vcmeCCmplc3NtYS5jb22C
DCouamVzc21hLmNvbYIKamVzc21hLm5ldIIMKi5qZXNzbWEubmV0MB0GA1UdDgQW
BBRZ97VSkfue5s8/OkYvUe+lXUgsHzANBgkqhkiG9w0BAQsFAAOCAQEAvM1QrhTL
/I1ws4fozKQlfmd3S0AdfFJX4BMTbp88proWpjrNZt6ZJ3EETHKcXu0z4gn3jWy6
1d8bDCytYQXjpG3Na7Ym5jc/E7wc+XUCUxlW41G/HnaLaIVccmRbyxMOWkr3yUX1
tc8rxUSKWzZBmYtJ49QzIvNzDuoLklE44g8XuqsZZlOZ2wRWJxc/hDG0MkKhRnc1
mqeaoY/79QZNE1RvX/aRRJoSl7NQ00/rMP8MU6OMzPvbIsMVK2uT+BVZG0RZJXaG
ikQJvxYZrDVZdRZL6tWPtS2wI49KkzGHNH4S1Fni/dDq3P2rxzisMY1gtKQLeVYY
eTQDDybjTWWiTg==
-----END CERTIFICATE-----
-----BEGIN ENCRYPTED PRIVATE KEY-----
MIIFHTBXBgkqhkiG9w0BBQ0wSjApBgkqhkiG9w0BBQwwHAQIgAqUxS2ufB0CAggA
MAwGCCqGSIb3DQIJBQAwHQYJYIZIAWUDBAEqBBD8E9f397mpmzmM9zYTWt2DBIIE
wIo2i0YH7cT/WCLmSnVvpsbayeo0mbVUFS4xp2VerQUS+UXHlrrOFeKU8NYfG6SS
m+3PXksvUlDV9iGT0p/w2Fm1GVKhE7UAeTJkff7KWi2pc926DUbYxhFOUNyCnrQS
pWCdV6M/243A0kHg6kIlSblsXjzKMC6eSlh2FGa7M7my9A+nu0WGOqvazkOm/8jk
h20xmB3t/Qa8NQp59E9oLXs5+CokIKL17+PmtBKeKpQBxAUtFjcqRAugIiNpPjOS
K99cY/Tt1C8ugMIsFH1/4HzFDYiSDRZ630dKOzBruprHVkIvQXI1CW6edPlfFZKG
yHeH95kigPVWUxWwluwALVmlPwD4h/GWHGOS7HH6x4ubStogjmC2B9f4VQCd6YRu
lee3cdDvdqLoRCoU48SoM/+RMR3NpF508ulWhKrDZ4eGcqdUYrx3rWVyOrmfMJDe
kfckGKnhCA1hL3wb/HQuAs2st2lDKBwsYIsOc8UXhueRFHKk+W0O/5kureMPF14O
DAxqAW3meHq7CLY8WuqatptIrJVDT8Wkbx47tXhLapTwlI0Cbf2AGfJIWSGmM+VF
I5l13pW2tycQnAXzSdd0y9wE0df/EoyXfIJeEfBNkzVhkIIC3KmOiI8BCnei6UR9
jun4+6aeFyfGybJ04ybixXyFsCsVUa5QcnhPwJvC8QsVFpuzOttQ5cf4Xn57DyxT
4CzWieJ6iQpfAJahRcj/4O6KRmWuMPpkK8XsCgzOYM1MxETq4HbqXEp68KiT6Q9r
jEAmbfZ8NdPvAPZ/iXKtA/eaMDDy6EbzDscUBg/TSxsF286F+wH2kXvkbwL2E/zh
LsTcjsGUdNKxlDJaivi7dDbSzxzvcDYRh+8Bd/vOw2gJF2ohwXXp3GKTVu71LS+b
YruQ55Lauh761ziI/z7qZw9ko8erb5vcsqLh9duqtxTBnQEd05ufFhNnXk4Vq8Cp
hr30Qy5sJ7TUuAVs2RSuGHd0Q5l8NGLjQwtkDx5ofizZKQOMWTq8S3IA98QyFka0
e+XaGGQ/KZJciIoCkuzAX4mn/aIffMldQIEg5ybslBc326SdTe52ex5YlmUuyvbO
zDotjC/eeQEFvq6Xb14N+u7mp8xL5Dlro79aL3VNNGa3lgKP6lWtMjgcyZrWMdc4
xaV0sVbfRO8Pj4y3cZGXol529zSNSIc7wT2/kyvF6RgJEcluAIPAJ8ea6CXKqDfe
sYZDL1emVoKMoFy3YsnEI+py2xxSsU4pjGPanZZaVfrDfw3qnQWPovfOx5fVc6Om
U55o3nbR5wtjPlQmcdVlT/fo7m/OUu3UgdjyLFcljeezJGeskJ3PMYbSsi7Mf+yF
/BEW6IfqicjG9TTMGzNACHH0iqAzW6lrC60UXMRIXrs/segt3+r5JqfRH58TMBR+
O5xk6sjOL4uqTsJRmbMapHf4tPxli8PdvNYN+YTQ4tlwazrckwgC5TJ3GA5JM3Ox
ZQIIKf1joemxq/VT2IpsqwMY67KC4OUOiRy471guGdljFarACe8rzZh8BHONveJd
XDgM0oPBkR9z4BGlfbBgAG0bIRNSXp8yGaZMiuIHbI8I4TnR84KgyUUscsIlH03A
8PQL73vd5pU4jC6WdOaXwkI=
-----END ENCRYPTED PRIVATE KEY-----
